ARM GAS  C:\Users\gordon\AppData\Local\Temp\ccvRyIKB.s 			page 1


   1              		.syntax unified
   2              		.cpu cortex-m3
   3              		.fpu softvfp
   4              		.eabi_attribute 20, 1
   5              		.eabi_attribute 21, 1
   6              		.eabi_attribute 23, 3
   7              		.eabi_attribute 24, 1
   8              		.eabi_attribute 25, 1
   9              		.eabi_attribute 26, 1
  10              		.eabi_attribute 30, 6
  11              		.eabi_attribute 34, 1
  12              		.eabi_attribute 18, 4
  13              		.thumb
  14              		.file	"main.c"
  15              		.text
  16              	.Ltext0:
  17              		.cfi_sections	.debug_frame
  18              		.section	.text.main,"ax",%progbits
  19              		.align	2
  20              		.global	main
  21              		.thumb
  22              		.thumb_func
  23              		.type	main, %function
  24              	main:
  25              	.LFB63:
  26              		.file 1 ".\\main.c"
   1:.\main.c      **** /*******************************************************************************
   2:.\main.c      **** * File Name: main.c
   3:.\main.c      **** *
   4:.\main.c      **** * Version: 1.0
   5:.\main.c      **** *
   6:.\main.c      **** * Description:
   7:.\main.c      **** *   Enumerates as a Virtual Com port.  Receives data from hyper terminal, then 
   8:.\main.c      **** *   send received data backward. LCD shows the Line settings.
   9:.\main.c      **** *   
  10:.\main.c      **** *  To test project:
  11:.\main.c      **** *   1. Build the project and program the hex file on to the target device.
  12:.\main.c      **** *   2. Select 3.3V in SW3 and plug-in power to the CY8CKIT-001
  13:.\main.c      **** *   3. Connect USB cable from the computer to the CY8CKIT-001.
  14:.\main.c      **** *   4. Select the USB_UART.inf file from the project directory, as the driver 
  15:.\main.c      **** *      for this example once Windows asks for it.
  16:.\main.c      **** *   5. Open "Device Manager" and note the COM port number for "Example Project"
  17:.\main.c      **** *      device.
  18:.\main.c      **** *   6. Open "HyperTerminal" application and make new connection to noted COM port
  19:.\main.c      **** *   7. Type the message, observe echo data received.
  20:.\main.c      **** *
  21:.\main.c      **** * Related Document:
  22:.\main.c      **** *  Universal Serial Bus Specification Revision 2.0 
  23:.\main.c      **** *  Universal Serial Bus Class Definitions for Communications Devices 
  24:.\main.c      **** *  Revision 1.2
  25:.\main.c      **** *
  26:.\main.c      **** ********************************************************************************
  27:.\main.c      **** * Copyright 2012, Cypress Semiconductor Corporation. All rights reserved.
  28:.\main.c      **** * This software is owned by Cypress Semiconductor Corporation and is protected
  29:.\main.c      **** * by and subject to worldwide patent and copyright laws and treaties.
  30:.\main.c      **** * Therefore, you may use this software only as provided in the license agreement
  31:.\main.c      **** * accompanying the software package from which you obtained this software.
ARM GAS  C:\Users\gordon\AppData\Local\Temp\ccvRyIKB.s 			page 2


  32:.\main.c      **** * CYPRESS AND ITS SUPPLIERS MAKE NO WARRANTY OF ANY KIND, EXPRESS OR IMPLIED,
  33:.\main.c      **** * WITH REGARD TO THIS SOFTWARE, INCLUDING, BUT NOT LIMITED TO, NONINFRINGEMENT,
  34:.\main.c      **** * IMPLIED WARRANTIES OF MERCHANTABILITY AND FITNESS FOR A PARTICULAR PURPOSE.
  35:.\main.c      **** *******************************************************************************/
  36:.\main.c      **** 
  37:.\main.c      **** #include <device.h>
  38:.\main.c      **** #include "stdio.h"
  39:.\main.c      **** void atoB(uint8 dec);
  40:.\main.c      **** int main()
  41:.\main.c      **** {
  27              		.loc 1 41 0
  28              		.cfi_startproc
  29              		@ args = 0, pretend = 0, frame = 112
  30              		@ frame_needed = 1, uses_anonymous_args = 0
  31 0000 80B5     		push	{r7, lr}
  32              		.cfi_def_cfa_offset 8
  33              		.cfi_offset 7, -8
  34              		.cfi_offset 14, -4
  35 0002 9CB0     		sub	sp, sp, #112
  36              		.cfi_def_cfa_offset 120
  37 0004 00AF     		add	r7, sp, #0
  38              		.cfi_def_cfa_register 7
  42:.\main.c      ****     char rx;
  43:.\main.c      ****     uint8 flag = 0;
  39              		.loc 1 43 0
  40 0006 0023     		movs	r3, #0
  41 0008 87F86F30 		strb	r3, [r7, #111]
  44:.\main.c      ****     char lineStr[100];
  45:.\main.c      ****     uint8 position = 0;
  42              		.loc 1 45 0
  43 000c 0023     		movs	r3, #0
  44 000e 87F86E30 		strb	r3, [r7, #110]
  46:.\main.c      ****     /* Enable Global Interrupts */
  47:.\main.c      ****     CyGlobalIntEnable;                        
  45              		.loc 1 47 0
  46              	@ 47 ".\main.c" 1
  47 0012 62B6     		CPSIE   i
  48              	@ 0 "" 2
  48:.\main.c      **** 
  49:.\main.c      ****     /* Start USBFS Operation with 3V operation */
  50:.\main.c      ****     USBUART_1_Start(0u, USBUART_1_3V_OPERATION);
  49              		.loc 1 50 0
  50              		.thumb
  51 0014 0020     		movs	r0, #0
  52 0016 0021     		movs	r1, #0
  53 0018 FFF7FEFF 		bl	USBUART_1_Start
  51:.\main.c      ****     
  52:.\main.c      ****     TX_pin_Write(1);
  54              		.loc 1 52 0
  55 001c 0120     		movs	r0, #1
  56 001e FFF7FEFF 		bl	TX_pin_Write
  57              	.L16:
  53:.\main.c      ****     /* Main Loop: */
  54:.\main.c      ****     for(;;)
  55:.\main.c      ****     {
  56:.\main.c      ****         if(USBUART_1_IsConfigurationChanged() != 0u) /* Host could send double SET_INTERFACE reques
  58              		.loc 1 56 0
ARM GAS  C:\Users\gordon\AppData\Local\Temp\ccvRyIKB.s 			page 3


  59 0022 FFF7FEFF 		bl	USBUART_1_IsConfigurationChanged
  60 0026 0346     		mov	r3, r0
  61 0028 002B     		cmp	r3, #0
  62 002a 06D0     		beq	.L2
  57:.\main.c      ****         {
  58:.\main.c      ****             if(USBUART_1_GetConfiguration() != 0u)   /* Init IN endpoints when device configured */
  63              		.loc 1 58 0
  64 002c FFF7FEFF 		bl	USBUART_1_GetConfiguration
  65 0030 0346     		mov	r3, r0
  66 0032 002B     		cmp	r3, #0
  67 0034 01D0     		beq	.L2
  59:.\main.c      ****             {
  60:.\main.c      ****                 /* Enumeration is done, enable OUT endpoint for receive data from Host */
  61:.\main.c      ****                 USBUART_1_CDC_Init();
  68              		.loc 1 61 0
  69 0036 FFF7FEFF 		bl	USBUART_1_CDC_Init
  70              	.L2:
  62:.\main.c      ****             }
  63:.\main.c      ****         }         
  64:.\main.c      ****         if(USBUART_1_GetConfiguration() != 0u)    /* Service USB CDC when device configured */
  71              		.loc 1 64 0
  72 003a FFF7FEFF 		bl	USBUART_1_GetConfiguration
  73 003e 0346     		mov	r3, r0
  74 0040 002B     		cmp	r3, #0
  75 0042 00F08A80 		beq	.L3
  65:.\main.c      ****         {
  66:.\main.c      ****             if(USBUART_1_DataIsReady() != 0u)               /* Check for input data from PC */
  76              		.loc 1 66 0
  77 0046 FFF7FEFF 		bl	USBUART_1_DataIsReady
  78 004a 0346     		mov	r3, r0
  79 004c 002B     		cmp	r3, #0
  80 004e 55D0     		beq	.L4
  67:.\main.c      ****             {   
  68:.\main.c      ****                 rx = USBUART_1_GetChar();
  81              		.loc 1 68 0
  82 0050 FFF7FEFF 		bl	USBUART_1_GetChar
  83 0054 0346     		mov	r3, r0
  84 0056 87F86730 		strb	r3, [r7, #103]
  69:.\main.c      ****                 switch(rx){
  85              		.loc 1 69 0
  86 005a 97F86730 		ldrb	r3, [r7, #103]	@ zero_extendqisi2
  87 005e 0D2B     		cmp	r3, #13
  88 0060 25D0     		beq	.L6
  89 0062 1B2B     		cmp	r3, #27
  90 0064 49D0     		beq	.L18
  91 0066 082B     		cmp	r3, #8
  92 0068 2DD1     		bne	.L17
  70:.\main.c      ****                     case 8://backspace
  71:.\main.c      ****                     if(position>0){
  93              		.loc 1 71 0
  94 006a 97F86E30 		ldrb	r3, [r7, #110]	@ zero_extendqisi2
  95 006e 002B     		cmp	r3, #0
  96 0070 1CD0     		beq	.L9
  72:.\main.c      ****                         position--;
  97              		.loc 1 72 0
  98 0072 97F86E30 		ldrb	r3, [r7, #110]	@ zero_extendqisi2
  99 0076 013B     		subs	r3, r3, #1
ARM GAS  C:\Users\gordon\AppData\Local\Temp\ccvRyIKB.s 			page 4


 100 0078 87F86E30 		strb	r3, [r7, #110]
  73:.\main.c      ****                         lineStr[position] = '\0';
 101              		.loc 1 73 0
 102 007c 97F86E30 		ldrb	r3, [r7, #110]	@ zero_extendqisi2
 103 0080 07F17002 		add	r2, r7, #112
 104 0084 1344     		add	r3, r3, r2
 105 0086 0022     		movs	r2, #0
 106 0088 03F8702C 		strb	r2, [r3, #-112]
  74:.\main.c      ****                         //backspace space backspace
  75:.\main.c      ****                         while(USBUART_1_CDCIsReady() == 0u); 
 107              		.loc 1 75 0
 108 008c 00BF     		nop
 109              	.L10:
 110              		.loc 1 75 0 is_stmt 0 discriminator 1
 111 008e FFF7FEFF 		bl	USBUART_1_CDCIsReady
 112 0092 0346     		mov	r3, r0
 113 0094 002B     		cmp	r3, #0
 114 0096 FAD0     		beq	.L10
  76:.\main.c      ****                         USBUART_1_PutChar(8);
 115              		.loc 1 76 0 is_stmt 1
 116 0098 0820     		movs	r0, #8
 117 009a FFF7FEFF 		bl	USBUART_1_PutChar
  77:.\main.c      ****                         USBUART_1_PutChar(32);
 118              		.loc 1 77 0
 119 009e 2020     		movs	r0, #32
 120 00a0 FFF7FEFF 		bl	USBUART_1_PutChar
  78:.\main.c      ****                         USBUART_1_PutChar(8);
 121              		.loc 1 78 0
 122 00a4 0820     		movs	r0, #8
 123 00a6 FFF7FEFF 		bl	USBUART_1_PutChar
  79:.\main.c      ****                     }
  80:.\main.c      ****                     break;
 124              		.loc 1 80 0
 125 00aa 27E0     		b	.L4
 126              	.L9:
 127 00ac 26E0     		b	.L4
 128              	.L6:
  81:.\main.c      ****                     case 13://enter (carriage return)
  82:.\main.c      ****                     flag = 1;
 129              		.loc 1 82 0
 130 00ae 0123     		movs	r3, #1
 131 00b0 87F86F30 		strb	r3, [r7, #111]
  83:.\main.c      ****                     while(USBUART_1_CDCIsReady() == 0u);
 132              		.loc 1 83 0
 133 00b4 00BF     		nop
 134              	.L11:
 135              		.loc 1 83 0 is_stmt 0 discriminator 1
 136 00b6 FFF7FEFF 		bl	USBUART_1_CDCIsReady
 137 00ba 0346     		mov	r3, r0
 138 00bc 002B     		cmp	r3, #0
 139 00be FAD0     		beq	.L11
  84:.\main.c      ****                     USBUART_1_PutCRLF();
 140              		.loc 1 84 0 is_stmt 1
 141 00c0 FFF7FEFF 		bl	USBUART_1_PutCRLF
  85:.\main.c      ****                     break;
 142              		.loc 1 85 0
 143 00c4 1AE0     		b	.L4
ARM GAS  C:\Users\gordon\AppData\Local\Temp\ccvRyIKB.s 			page 5


 144              	.L17:
  86:.\main.c      ****                     case 27://escape
  87:.\main.c      ****                     break;
  88:.\main.c      ****                     default://everything else
  89:.\main.c      ****                     lineStr[position] = rx;
 145              		.loc 1 89 0
 146 00c6 97F86E30 		ldrb	r3, [r7, #110]	@ zero_extendqisi2
 147 00ca 07F17002 		add	r2, r7, #112
 148 00ce 1344     		add	r3, r3, r2
 149 00d0 97F86720 		ldrb	r2, [r7, #103]
 150 00d4 03F8702C 		strb	r2, [r3, #-112]
  90:.\main.c      ****                     position++;
 151              		.loc 1 90 0
 152 00d8 97F86E30 		ldrb	r3, [r7, #110]	@ zero_extendqisi2
 153 00dc 0133     		adds	r3, r3, #1
 154 00de 87F86E30 		strb	r3, [r7, #110]
  91:.\main.c      ****                     while(USBUART_1_CDCIsReady() == 0u); 
 155              		.loc 1 91 0
 156 00e2 00BF     		nop
 157              	.L12:
 158              		.loc 1 91 0 is_stmt 0 discriminator 1
 159 00e4 FFF7FEFF 		bl	USBUART_1_CDCIsReady
 160 00e8 0346     		mov	r3, r0
 161 00ea 002B     		cmp	r3, #0
 162 00ec FAD0     		beq	.L12
  92:.\main.c      ****                     USBUART_1_PutChar(rx);       /* Send data back to PC */
 163              		.loc 1 92 0 is_stmt 1
 164 00ee 97F86730 		ldrb	r3, [r7, #103]	@ zero_extendqisi2
 165 00f2 1846     		mov	r0, r3
 166 00f4 FFF7FEFF 		bl	USBUART_1_PutChar
  93:.\main.c      ****                     break;
 167              		.loc 1 93 0
 168 00f8 00E0     		b	.L4
 169              	.L18:
  87:.\main.c      ****                     default://everything else
 170              		.loc 1 87 0
 171 00fa 00BF     		nop
 172              	.L4:
  94:.\main.c      ****                 }
  95:.\main.c      ****             }
  96:.\main.c      ****             if(flag && position != 0){
 173              		.loc 1 96 0
 174 00fc 97F86F30 		ldrb	r3, [r7, #111]	@ zero_extendqisi2
 175 0100 002B     		cmp	r3, #0
 176 0102 27D0     		beq	.L13
 177              		.loc 1 96 0 is_stmt 0 discriminator 1
 178 0104 97F86E30 		ldrb	r3, [r7, #110]	@ zero_extendqisi2
 179 0108 002B     		cmp	r3, #0
 180 010a 23D0     		beq	.L13
 181              	.LBB2:
  97:.\main.c      ****                 int i = 0;
 182              		.loc 1 97 0 is_stmt 1
 183 010c 0023     		movs	r3, #0
 184 010e BB66     		str	r3, [r7, #104]
  98:.\main.c      ****                 flag = 0;
 185              		.loc 1 98 0
 186 0110 0023     		movs	r3, #0
ARM GAS  C:\Users\gordon\AppData\Local\Temp\ccvRyIKB.s 			page 6


 187 0112 87F86F30 		strb	r3, [r7, #111]
  99:.\main.c      ****                 TX_pin_Write(0);
 188              		.loc 1 99 0
 189 0116 0020     		movs	r0, #0
 190 0118 FFF7FEFF 		bl	TX_pin_Write
 100:.\main.c      ****                 CyDelayUs(250);//1/4000th of a sec, or 2000 baud with diff man
 191              		.loc 1 100 0
 192 011c FA20     		movs	r0, #250
 193 011e FFF7FEFF 		bl	CyDelayUs
 101:.\main.c      ****                 TX_pin_Write(1);
 194              		.loc 1 101 0
 195 0122 0120     		movs	r0, #1
 196 0124 FFF7FEFF 		bl	TX_pin_Write
 102:.\main.c      ****                 CyDelayUs(250);
 197              		.loc 1 102 0
 198 0128 FA20     		movs	r0, #250
 199 012a FFF7FEFF 		bl	CyDelayUs
 103:.\main.c      ****                 for(i = 0; i < position; i++){
 200              		.loc 1 103 0
 201 012e 0023     		movs	r3, #0
 202 0130 BB66     		str	r3, [r7, #104]
 203 0132 09E0     		b	.L14
 204              	.L15:
 104:.\main.c      ****                     atoB(lineStr[i]);
 205              		.loc 1 104 0 discriminator 3
 206 0134 3A46     		mov	r2, r7
 207 0136 BB6E     		ldr	r3, [r7, #104]
 208 0138 1344     		add	r3, r3, r2
 209 013a 1B78     		ldrb	r3, [r3]	@ zero_extendqisi2
 210 013c 1846     		mov	r0, r3
 211 013e FFF7FEFF 		bl	atoB
 103:.\main.c      ****                 for(i = 0; i < position; i++){
 212              		.loc 1 103 0 discriminator 3
 213 0142 BB6E     		ldr	r3, [r7, #104]
 214 0144 0133     		adds	r3, r3, #1
 215 0146 BB66     		str	r3, [r7, #104]
 216              	.L14:
 103:.\main.c      ****                 for(i = 0; i < position; i++){
 217              		.loc 1 103 0 is_stmt 0 discriminator 1
 218 0148 97F86E20 		ldrb	r2, [r7, #110]	@ zero_extendqisi2
 219 014c BB6E     		ldr	r3, [r7, #104]
 220 014e 9A42     		cmp	r2, r3
 221 0150 F0DC     		bgt	.L15
 222              	.LBE2:
  96:.\main.c      ****                 int i = 0;
 223              		.loc 1 96 0 is_stmt 1
 224 0152 02E0     		b	.L3
 225              	.L13:
 105:.\main.c      ****                 }
 106:.\main.c      ****             }else flag = 0;
 226              		.loc 1 106 0
 227 0154 0023     		movs	r3, #0
 228 0156 87F86F30 		strb	r3, [r7, #111]
 229              	.L3:
 107:.\main.c      ****         }
 108:.\main.c      ****     }   
 230              		.loc 1 108 0 discriminator 1
ARM GAS  C:\Users\gordon\AppData\Local\Temp\ccvRyIKB.s 			page 7


 231 015a 62E7     		b	.L16
 232              		.cfi_endproc
 233              	.LFE63:
 234              		.size	main, .-main
 235              		.section	.text.atoB,"ax",%progbits
 236              		.align	2
 237              		.global	atoB
 238              		.thumb
 239              		.thumb_func
 240              		.type	atoB, %function
 241              	atoB:
 242              	.LFB64:
 109:.\main.c      **** }
 110:.\main.c      **** 
 111:.\main.c      **** void atoB(uint8 dec)
 112:.\main.c      ****     {
 243              		.loc 1 112 0
 244              		.cfi_startproc
 245              		@ args = 0, pretend = 0, frame = 104
 246              		@ frame_needed = 1, uses_anonymous_args = 0
 247 0000 80B5     		push	{r7, lr}
 248              		.cfi_def_cfa_offset 8
 249              		.cfi_offset 7, -8
 250              		.cfi_offset 14, -4
 251 0002 9AB0     		sub	sp, sp, #104
 252              		.cfi_def_cfa_offset 112
 253 0004 00AF     		add	r7, sp, #0
 254              		.cfi_def_cfa_register 7
 255 0006 0346     		mov	r3, r0
 256 0008 FB71     		strb	r3, [r7, #7]
 113:.\main.c      **** 	  int a[20];//flag "ten" checks if 1 is represented as "10" or "01",
 114:.\main.c      ****       int i=0,j,ten = 0;
 257              		.loc 1 114 0
 258 000a 0023     		movs	r3, #0
 259 000c 7B66     		str	r3, [r7, #100]
 260 000e 0023     		movs	r3, #0
 261 0010 FB65     		str	r3, [r7, #92]
 115:.\main.c      ****       while(dec>0) 
 262              		.loc 1 115 0
 263 0012 0FE0     		b	.L20
 264              	.L21:
 116:.\main.c      ****       { 
 117:.\main.c      ****            a[i]=dec%2; 
 265              		.loc 1 117 0
 266 0014 FB79     		ldrb	r3, [r7, #7]	@ zero_extendqisi2
 267 0016 03F00102 		and	r2, r3, #1
 268 001a 7B6E     		ldr	r3, [r7, #100]
 269 001c 9B00     		lsls	r3, r3, #2
 270 001e 07F16801 		add	r1, r7, #104
 271 0022 0B44     		add	r3, r3, r1
 272 0024 43F85C2C 		str	r2, [r3, #-92]
 118:.\main.c      ****            i++; 
 273              		.loc 1 118 0
 274 0028 7B6E     		ldr	r3, [r7, #100]
 275 002a 0133     		adds	r3, r3, #1
 276 002c 7B66     		str	r3, [r7, #100]
 119:.\main.c      ****            dec=dec/2;
ARM GAS  C:\Users\gordon\AppData\Local\Temp\ccvRyIKB.s 			page 8


 277              		.loc 1 119 0
 278 002e FB79     		ldrb	r3, [r7, #7]	@ zero_extendqisi2
 279 0030 5B08     		lsrs	r3, r3, #1
 280 0032 FB71     		strb	r3, [r7, #7]
 281              	.L20:
 115:.\main.c      ****       { 
 282              		.loc 1 115 0
 283 0034 FB79     		ldrb	r3, [r7, #7]	@ zero_extendqisi2
 284 0036 002B     		cmp	r3, #0
 285 0038 ECD1     		bne	.L21
 120:.\main.c      ****       }
 121:.\main.c      ****       for(j=i-1;j>=0;j--) 
 286              		.loc 1 121 0
 287 003a 7B6E     		ldr	r3, [r7, #100]
 288 003c 013B     		subs	r3, r3, #1
 289 003e 3B66     		str	r3, [r7, #96]
 290 0040 2EE0     		b	.L22
 291              	.L26:
 122:.\main.c      ****       {
 123:.\main.c      ****         if(a[j]){//if 1, ten flag is changed
 292              		.loc 1 123 0
 293 0042 3B6E     		ldr	r3, [r7, #96]
 294 0044 9B00     		lsls	r3, r3, #2
 295 0046 07F16802 		add	r2, r7, #104
 296 004a 1344     		add	r3, r3, r2
 297 004c 53F85C3C 		ldr	r3, [r3, #-92]
 298 0050 002B     		cmp	r3, #0
 299 0052 06D0     		beq	.L23
 124:.\main.c      ****             ten = !ten;   
 300              		.loc 1 124 0
 301 0054 FB6D     		ldr	r3, [r7, #92]
 302 0056 002B     		cmp	r3, #0
 303 0058 0CBF     		ite	eq
 304 005a 0123     		moveq	r3, #1
 305 005c 0023     		movne	r3, #0
 306 005e DBB2     		uxtb	r3, r3
 307 0060 FB65     		str	r3, [r7, #92]
 308              	.L23:
 125:.\main.c      ****         }
 126:.\main.c      ****         if(ten){
 309              		.loc 1 126 0
 310 0062 FB6D     		ldr	r3, [r7, #92]
 311 0064 002B     		cmp	r3, #0
 312 0066 0CD0     		beq	.L24
 127:.\main.c      ****             TX_pin_Write(1);
 313              		.loc 1 127 0
 314 0068 0120     		movs	r0, #1
 315 006a FFF7FEFF 		bl	TX_pin_Write
 128:.\main.c      ****             CyDelayUs(250);//1/4000th of a sec, or 2000 baud with diff man
 316              		.loc 1 128 0
 317 006e FA20     		movs	r0, #250
 318 0070 FFF7FEFF 		bl	CyDelayUs
 129:.\main.c      ****             TX_pin_Write(0);
 319              		.loc 1 129 0
 320 0074 0020     		movs	r0, #0
 321 0076 FFF7FEFF 		bl	TX_pin_Write
 130:.\main.c      ****             CyDelayUs(250);
ARM GAS  C:\Users\gordon\AppData\Local\Temp\ccvRyIKB.s 			page 9


 322              		.loc 1 130 0
 323 007a FA20     		movs	r0, #250
 324 007c FFF7FEFF 		bl	CyDelayUs
 325 0080 0BE0     		b	.L25
 326              	.L24:
 131:.\main.c      ****         }else{
 132:.\main.c      ****             TX_pin_Write(0);
 327              		.loc 1 132 0
 328 0082 0020     		movs	r0, #0
 329 0084 FFF7FEFF 		bl	TX_pin_Write
 133:.\main.c      ****             CyDelayUs(250);//1/4000th of a sec, or 2000 baud with diff man
 330              		.loc 1 133 0
 331 0088 FA20     		movs	r0, #250
 332 008a FFF7FEFF 		bl	CyDelayUs
 134:.\main.c      ****             TX_pin_Write(1);
 333              		.loc 1 134 0
 334 008e 0120     		movs	r0, #1
 335 0090 FFF7FEFF 		bl	TX_pin_Write
 135:.\main.c      ****             CyDelayUs(250);
 336              		.loc 1 135 0
 337 0094 FA20     		movs	r0, #250
 338 0096 FFF7FEFF 		bl	CyDelayUs
 339              	.L25:
 121:.\main.c      ****       {
 340              		.loc 1 121 0 discriminator 2
 341 009a 3B6E     		ldr	r3, [r7, #96]
 342 009c 013B     		subs	r3, r3, #1
 343 009e 3B66     		str	r3, [r7, #96]
 344              	.L22:
 121:.\main.c      ****       {
 345              		.loc 1 121 0 is_stmt 0 discriminator 1
 346 00a0 3B6E     		ldr	r3, [r7, #96]
 347 00a2 002B     		cmp	r3, #0
 348 00a4 CDDA     		bge	.L26
 136:.\main.c      ****         }
 137:.\main.c      ****       }
 138:.\main.c      ****     TX_pin_Write(1);//set to HIGH at the end
 349              		.loc 1 138 0 is_stmt 1
 350 00a6 0120     		movs	r0, #1
 351 00a8 FFF7FEFF 		bl	TX_pin_Write
 139:.\main.c      ****     }
 352              		.loc 1 139 0
 353 00ac 6837     		adds	r7, r7, #104
 354              		.cfi_def_cfa_offset 8
 355 00ae BD46     		mov	sp, r7
 356              		.cfi_def_cfa_register 13
 357              		@ sp needed
 358 00b0 80BD     		pop	{r7, pc}
 359              		.cfi_endproc
 360              	.LFE64:
 361              		.size	atoB, .-atoB
 362 00b2 00BF     		.text
 363              	.Letext0:
 364              		.file 2 "c:\\program files (x86)\\cypress\\psoc creator\\3.3\\psoc creator\\import\\gnu\\arm\\4.9.
 365              		.file 3 "c:\\program files (x86)\\cypress\\psoc creator\\3.3\\psoc creator\\import\\gnu\\arm\\4.9.
 366              		.file 4 "Generated_Source\\PSoC5/cytypes.h"
 367              		.file 5 "Generated_Source\\PSoC5/core_cm3.h"
ARM GAS  C:\Users\gordon\AppData\Local\Temp\ccvRyIKB.s 			page 10

