ARM GAS  C:\Users\gordon\AppData\Local\Temp\ccIc8IR0.s 			page 1


   1              		.syntax unified
   2              		.cpu cortex-m3
   3              		.fpu softvfp
   4              		.eabi_attribute 20, 1
   5              		.eabi_attribute 21, 1
   6              		.eabi_attribute 23, 3
   7              		.eabi_attribute 24, 1
   8              		.eabi_attribute 25, 1
   9              		.eabi_attribute 26, 1
  10              		.eabi_attribute 30, 6
  11              		.eabi_attribute 34, 1
  12              		.eabi_attribute 18, 4
  13              		.thumb
  14              		.file	"main.c"
  15              		.text
  16              	.Ltext0:
  17              		.cfi_sections	.debug_frame
  18              		.comm	binary,3200,4
  19              		.global	binPos
  20              		.bss
  21              		.align	2
  22              		.type	binPos, %object
  23              		.size	binPos, 4
  24              	binPos:
  25 0000 00000000 		.space	4
  26              		.comm	k,4,4
  27              		.global	startBit
  28              		.data
  29              		.align	2
  30              		.type	startBit, %object
  31              		.size	startBit, 4
  32              	startBit:
  33 0000 01000000 		.word	1
  34              		.section	.text.TimerHandler,"ax",%progbits
  35              		.align	2
  36              		.global	TimerHandler
  37              		.thumb
  38              		.thumb_func
  39              		.type	TimerHandler, %function
  40              	TimerHandler:
  41              	.LFB63:
  42              		.file 1 ".\\main.c"
   1:.\main.c      **** /*******************************************************************************
   2:.\main.c      **** * File Name: main.c
   3:.\main.c      **** *
   4:.\main.c      **** * Version: 1.0
   5:.\main.c      **** *
   6:.\main.c      **** * Description:
   7:.\main.c      **** *   Enumerates as a Virtual Com port.  Receives data from hyper terminal, then 
   8:.\main.c      **** *   send received data backward. LCD shows the Line settings.
   9:.\main.c      **** *   
  10:.\main.c      **** *  To test project:
  11:.\main.c      **** *   1. Build the project and program the hex file on to the target device.
  12:.\main.c      **** *   2. Select 3.3V in SW3 and plug-in power to the CY8CKIT-001
  13:.\main.c      **** *   3. Connect USB cable from the computer to the CY8CKIT-001.
  14:.\main.c      **** *   4. Select the USB_UART.inf file from the project directory, as the driver 
  15:.\main.c      **** *      for this example once Windows asks for it.
ARM GAS  C:\Users\gordon\AppData\Local\Temp\ccIc8IR0.s 			page 2


  16:.\main.c      **** *   5. Open "Device Manager" and note the COM port number for "Example Project"
  17:.\main.c      **** *      device.
  18:.\main.c      **** *   6. Open "HyperTerminal" application and make new connection to noted COM port
  19:.\main.c      **** *   7. Type the message, observe echo data received.
  20:.\main.c      **** *
  21:.\main.c      **** * Related Document:
  22:.\main.c      **** *  Universal Serial Bus Specification Revision 2.0 
  23:.\main.c      **** *  Universal Serial Bus Class Definitions for Communications Devices 
  24:.\main.c      **** *  Revision 1.2
  25:.\main.c      **** *
  26:.\main.c      **** ********************************************************************************
  27:.\main.c      **** * Copyright 2012, Cypress Semiconductor Corporation. All rights reserved.
  28:.\main.c      **** * This software is owned by Cypress Semiconductor Corporation and is protected
  29:.\main.c      **** * by and subject to worldwide patent and copyright laws and treaties.
  30:.\main.c      **** * Therefore, you may use this software only as provided in the license agreement
  31:.\main.c      **** * accompanying the software package from which you obtained this software.
  32:.\main.c      **** * CYPRESS AND ITS SUPPLIERS MAKE NO WARRANTY OF ANY KIND, EXPRESS OR IMPLIED,
  33:.\main.c      **** * WITH REGARD TO THIS SOFTWARE, INCLUDING, BUT NOT LIMITED TO, NONINFRINGEMENT,
  34:.\main.c      **** * IMPLIED WARRANTIES OF MERCHANTABILITY AND FITNESS FOR A PARTICULAR PURPOSE.
  35:.\main.c      **** *******************************************************************************/
  36:.\main.c      **** 
  37:.\main.c      **** #include <device.h>
  38:.\main.c      **** #include "stdio.h"
  39:.\main.c      **** void atoB(uint8 dec);
  40:.\main.c      **** int binary[800];
  41:.\main.c      **** int binPos = 0,k,startBit = 1;
  42:.\main.c      **** CY_ISR(TimerHandler){
  43              		.loc 1 42 0
  44              		.cfi_startproc
  45              		@ args = 0, pretend = 0, frame = 0
  46              		@ frame_needed = 1, uses_anonymous_args = 0
  47 0000 80B5     		push	{r7, lr}
  48              		.cfi_def_cfa_offset 8
  49              		.cfi_offset 7, -8
  50              		.cfi_offset 14, -4
  51 0002 00AF     		add	r7, sp, #0
  52              		.cfi_def_cfa_register 7
  43:.\main.c      ****     Timer_STATUS;
  53              		.loc 1 43 0
  54 0004 0B4B     		ldr	r3, .L3
  55 0006 1B78     		ldrb	r3, [r3]
  44:.\main.c      ****     if(k < binPos){
  56              		.loc 1 44 0
  57 0008 0B4B     		ldr	r3, .L3+4
  58 000a 1A68     		ldr	r2, [r3]
  59 000c 0B4B     		ldr	r3, .L3+8
  60 000e 1B68     		ldr	r3, [r3]
  61 0010 9A42     		cmp	r2, r3
  62 0012 0DDA     		bge	.L1
  45:.\main.c      ****         TX_pin_Write(binary[k]);
  63              		.loc 1 45 0
  64 0014 084B     		ldr	r3, .L3+4
  65 0016 1B68     		ldr	r3, [r3]
  66 0018 094A     		ldr	r2, .L3+12
  67 001a 52F82330 		ldr	r3, [r2, r3, lsl #2]
  68 001e DBB2     		uxtb	r3, r3
  69 0020 1846     		mov	r0, r3
ARM GAS  C:\Users\gordon\AppData\Local\Temp\ccIc8IR0.s 			page 3


  70 0022 FFF7FEFF 		bl	TX_pin_Write
  46:.\main.c      ****         k++;
  71              		.loc 1 46 0
  72 0026 044B     		ldr	r3, .L3+4
  73 0028 1B68     		ldr	r3, [r3]
  74 002a 0133     		adds	r3, r3, #1
  75 002c 024A     		ldr	r2, .L3+4
  76 002e 1360     		str	r3, [r2]
  77              	.L1:
  47:.\main.c      ****     }
  48:.\main.c      **** }
  78              		.loc 1 48 0
  79 0030 80BD     		pop	{r7, pc}
  80              	.L4:
  81 0032 00BF     		.align	2
  82              	.L3:
  83 0034 65650040 		.word	1073767781
  84 0038 00000000 		.word	k
  85 003c 00000000 		.word	binPos
  86 0040 00000000 		.word	binary
  87              		.cfi_endproc
  88              	.LFE63:
  89              		.size	TimerHandler, .-TimerHandler
  90              		.section	.text.main,"ax",%progbits
  91              		.align	2
  92              		.global	main
  93              		.thumb
  94              		.thumb_func
  95              		.type	main, %function
  96              	main:
  97              	.LFB64:
  49:.\main.c      **** int main()
  50:.\main.c      **** {
  98              		.loc 1 50 0
  99              		.cfi_startproc
 100              		@ args = 0, pretend = 0, frame = 112
 101              		@ frame_needed = 1, uses_anonymous_args = 0
 102 0000 80B5     		push	{r7, lr}
 103              		.cfi_def_cfa_offset 8
 104              		.cfi_offset 7, -8
 105              		.cfi_offset 14, -4
 106 0002 9CB0     		sub	sp, sp, #112
 107              		.cfi_def_cfa_offset 120
 108 0004 00AF     		add	r7, sp, #0
 109              		.cfi_def_cfa_register 7
  51:.\main.c      ****     char rx;
  52:.\main.c      ****     uint8 flag = 0;
 110              		.loc 1 52 0
 111 0006 0023     		movs	r3, #0
 112 0008 87F86F30 		strb	r3, [r7, #111]
  53:.\main.c      ****     char lineStr[100];
  54:.\main.c      ****     uint8 position = 0;
 113              		.loc 1 54 0
 114 000c 0023     		movs	r3, #0
 115 000e 87F86E30 		strb	r3, [r7, #110]
  55:.\main.c      ****     /* Enable Global Interrupts */
  56:.\main.c      ****     CyGlobalIntEnable;                        
ARM GAS  C:\Users\gordon\AppData\Local\Temp\ccIc8IR0.s 			page 4


 116              		.loc 1 56 0
 117              	@ 56 ".\main.c" 1
 118 0012 62B6     		CPSIE   i
 119              	@ 0 "" 2
  57:.\main.c      ****     
  58:.\main.c      ****     /* Start USBFS Operation with 3V operation */
  59:.\main.c      ****     USBUART_1_Start(0u, USBUART_1_3V_OPERATION);
 120              		.loc 1 59 0
 121              		.thumb
 122 0014 0020     		movs	r0, #0
 123 0016 0021     		movs	r1, #0
 124 0018 FFF7FEFF 		bl	USBUART_1_Start
  60:.\main.c      ****     TimerISR_StartEx(TimerHandler);
 125              		.loc 1 60 0
 126 001c 5E48     		ldr	r0, .L23
 127 001e FFF7FEFF 		bl	TimerISR_StartEx
  61:.\main.c      ****     TX_pin_Write(1);
 128              		.loc 1 61 0
 129 0022 0120     		movs	r0, #1
 130 0024 FFF7FEFF 		bl	TX_pin_Write
 131              	.L20:
  62:.\main.c      ****     /* Main Loop: */
  63:.\main.c      ****     for(;;)
  64:.\main.c      ****     {
  65:.\main.c      ****         if(USBUART_1_IsConfigurationChanged() != 0u) /* Host could send double SET_INTERFACE reques
 132              		.loc 1 65 0
 133 0028 FFF7FEFF 		bl	USBUART_1_IsConfigurationChanged
 134 002c 0346     		mov	r3, r0
 135 002e 002B     		cmp	r3, #0
 136 0030 06D0     		beq	.L6
  66:.\main.c      ****         {
  67:.\main.c      ****             if(USBUART_1_GetConfiguration() != 0u)   /* Init IN endpoints when device configured */
 137              		.loc 1 67 0
 138 0032 FFF7FEFF 		bl	USBUART_1_GetConfiguration
 139 0036 0346     		mov	r3, r0
 140 0038 002B     		cmp	r3, #0
 141 003a 01D0     		beq	.L6
  68:.\main.c      ****             {
  69:.\main.c      ****                 /* Enumeration is done, enable OUT endpoint for receive data from Host */
  70:.\main.c      ****                 USBUART_1_CDC_Init();
 142              		.loc 1 70 0
 143 003c FFF7FEFF 		bl	USBUART_1_CDC_Init
 144              	.L6:
  71:.\main.c      ****             }
  72:.\main.c      ****         }         
  73:.\main.c      ****         if(USBUART_1_GetConfiguration() != 0u)    /* Service USB CDC when device configured */
 145              		.loc 1 73 0
 146 0040 FFF7FEFF 		bl	USBUART_1_GetConfiguration
 147 0044 0346     		mov	r3, r0
 148 0046 002B     		cmp	r3, #0
 149 0048 00F0A480 		beq	.L7
  74:.\main.c      ****         {
  75:.\main.c      ****             if(USBUART_1_DataIsReady() != 0u)               /* Check for input data from PC */
 150              		.loc 1 75 0
 151 004c FFF7FEFF 		bl	USBUART_1_DataIsReady
 152 0050 0346     		mov	r3, r0
 153 0052 002B     		cmp	r3, #0
ARM GAS  C:\Users\gordon\AppData\Local\Temp\ccIc8IR0.s 			page 5


 154 0054 55D0     		beq	.L8
  76:.\main.c      ****             {   
  77:.\main.c      ****                 rx = USBUART_1_GetChar();
 155              		.loc 1 77 0
 156 0056 FFF7FEFF 		bl	USBUART_1_GetChar
 157 005a 0346     		mov	r3, r0
 158 005c 87F86730 		strb	r3, [r7, #103]
  78:.\main.c      ****                 switch(rx){
 159              		.loc 1 78 0
 160 0060 97F86730 		ldrb	r3, [r7, #103]	@ zero_extendqisi2
 161 0064 0D2B     		cmp	r3, #13
 162 0066 25D0     		beq	.L10
 163 0068 1B2B     		cmp	r3, #27
 164 006a 49D0     		beq	.L22
 165 006c 082B     		cmp	r3, #8
 166 006e 2DD1     		bne	.L21
  79:.\main.c      ****                     case 8://backspace
  80:.\main.c      ****                     if(position>0){
 167              		.loc 1 80 0
 168 0070 97F86E30 		ldrb	r3, [r7, #110]	@ zero_extendqisi2
 169 0074 002B     		cmp	r3, #0
 170 0076 1CD0     		beq	.L13
  81:.\main.c      ****                         position--;
 171              		.loc 1 81 0
 172 0078 97F86E30 		ldrb	r3, [r7, #110]	@ zero_extendqisi2
 173 007c 013B     		subs	r3, r3, #1
 174 007e 87F86E30 		strb	r3, [r7, #110]
  82:.\main.c      ****                         lineStr[position] = '\0';
 175              		.loc 1 82 0
 176 0082 97F86E30 		ldrb	r3, [r7, #110]	@ zero_extendqisi2
 177 0086 07F17002 		add	r2, r7, #112
 178 008a 1344     		add	r3, r3, r2
 179 008c 0022     		movs	r2, #0
 180 008e 03F8702C 		strb	r2, [r3, #-112]
  83:.\main.c      ****                         //backspace space backspace
  84:.\main.c      ****                         while(USBUART_1_CDCIsReady() == 0u); 
 181              		.loc 1 84 0
 182 0092 00BF     		nop
 183              	.L14:
 184              		.loc 1 84 0 is_stmt 0 discriminator 1
 185 0094 FFF7FEFF 		bl	USBUART_1_CDCIsReady
 186 0098 0346     		mov	r3, r0
 187 009a 002B     		cmp	r3, #0
 188 009c FAD0     		beq	.L14
  85:.\main.c      ****                         USBUART_1_PutChar(8);
 189              		.loc 1 85 0 is_stmt 1
 190 009e 0820     		movs	r0, #8
 191 00a0 FFF7FEFF 		bl	USBUART_1_PutChar
  86:.\main.c      ****                         USBUART_1_PutChar(32);
 192              		.loc 1 86 0
 193 00a4 2020     		movs	r0, #32
 194 00a6 FFF7FEFF 		bl	USBUART_1_PutChar
  87:.\main.c      ****                         USBUART_1_PutChar(8);
 195              		.loc 1 87 0
 196 00aa 0820     		movs	r0, #8
 197 00ac FFF7FEFF 		bl	USBUART_1_PutChar
  88:.\main.c      ****                     }
ARM GAS  C:\Users\gordon\AppData\Local\Temp\ccIc8IR0.s 			page 6


  89:.\main.c      ****                     break;
 198              		.loc 1 89 0
 199 00b0 27E0     		b	.L8
 200              	.L13:
 201 00b2 26E0     		b	.L8
 202              	.L10:
  90:.\main.c      ****                     case 13://enter (carriage return)
  91:.\main.c      ****                     flag = 1;
 203              		.loc 1 91 0
 204 00b4 0123     		movs	r3, #1
 205 00b6 87F86F30 		strb	r3, [r7, #111]
  92:.\main.c      ****                     while(USBUART_1_CDCIsReady() == 0u);
 206              		.loc 1 92 0
 207 00ba 00BF     		nop
 208              	.L15:
 209              		.loc 1 92 0 is_stmt 0 discriminator 1
 210 00bc FFF7FEFF 		bl	USBUART_1_CDCIsReady
 211 00c0 0346     		mov	r3, r0
 212 00c2 002B     		cmp	r3, #0
 213 00c4 FAD0     		beq	.L15
  93:.\main.c      ****                     USBUART_1_PutCRLF();
 214              		.loc 1 93 0 is_stmt 1
 215 00c6 FFF7FEFF 		bl	USBUART_1_PutCRLF
  94:.\main.c      ****                     break;
 216              		.loc 1 94 0
 217 00ca 1AE0     		b	.L8
 218              	.L21:
  95:.\main.c      ****                     case 27://escape
  96:.\main.c      ****                     break;
  97:.\main.c      ****                     default://everything else
  98:.\main.c      ****                     lineStr[position] = rx;
 219              		.loc 1 98 0
 220 00cc 97F86E30 		ldrb	r3, [r7, #110]	@ zero_extendqisi2
 221 00d0 07F17002 		add	r2, r7, #112
 222 00d4 1344     		add	r3, r3, r2
 223 00d6 97F86720 		ldrb	r2, [r7, #103]
 224 00da 03F8702C 		strb	r2, [r3, #-112]
  99:.\main.c      ****                     position++;
 225              		.loc 1 99 0
 226 00de 97F86E30 		ldrb	r3, [r7, #110]	@ zero_extendqisi2
 227 00e2 0133     		adds	r3, r3, #1
 228 00e4 87F86E30 		strb	r3, [r7, #110]
 100:.\main.c      ****                     while(USBUART_1_CDCIsReady() == 0u); 
 229              		.loc 1 100 0
 230 00e8 00BF     		nop
 231              	.L16:
 232              		.loc 1 100 0 is_stmt 0 discriminator 1
 233 00ea FFF7FEFF 		bl	USBUART_1_CDCIsReady
 234 00ee 0346     		mov	r3, r0
 235 00f0 002B     		cmp	r3, #0
 236 00f2 FAD0     		beq	.L16
 101:.\main.c      ****                     USBUART_1_PutChar(rx);       /* Send data back to PC */
 237              		.loc 1 101 0 is_stmt 1
 238 00f4 97F86730 		ldrb	r3, [r7, #103]	@ zero_extendqisi2
 239 00f8 1846     		mov	r0, r3
 240 00fa FFF7FEFF 		bl	USBUART_1_PutChar
 102:.\main.c      ****                     break;
ARM GAS  C:\Users\gordon\AppData\Local\Temp\ccIc8IR0.s 			page 7


 241              		.loc 1 102 0
 242 00fe 00E0     		b	.L8
 243              	.L22:
  96:.\main.c      ****                     default://everything else
 244              		.loc 1 96 0
 245 0100 00BF     		nop
 246              	.L8:
 103:.\main.c      ****                 }
 104:.\main.c      ****             }
 105:.\main.c      ****             if(flag && position != 0){
 247              		.loc 1 105 0
 248 0102 97F86F30 		ldrb	r3, [r7, #111]	@ zero_extendqisi2
 249 0106 002B     		cmp	r3, #0
 250 0108 41D0     		beq	.L17
 251              		.loc 1 105 0 is_stmt 0 discriminator 1
 252 010a 97F86E30 		ldrb	r3, [r7, #110]	@ zero_extendqisi2
 253 010e 002B     		cmp	r3, #0
 254 0110 3DD0     		beq	.L17
 255              	.LBB2:
 106:.\main.c      ****                 int i = 0;
 256              		.loc 1 106 0 is_stmt 1
 257 0112 0023     		movs	r3, #0
 258 0114 BB66     		str	r3, [r7, #104]
 107:.\main.c      ****                 flag = 0;
 259              		.loc 1 107 0
 260 0116 0023     		movs	r3, #0
 261 0118 87F86F30 		strb	r3, [r7, #111]
 108:.\main.c      ****                 binary[binPos] = 0;
 262              		.loc 1 108 0
 263 011c 1F4B     		ldr	r3, .L23+4
 264 011e 1B68     		ldr	r3, [r3]
 265 0120 1F4A     		ldr	r2, .L23+8
 266 0122 0021     		movs	r1, #0
 267 0124 42F82310 		str	r1, [r2, r3, lsl #2]
 109:.\main.c      ****                 binPos++;
 268              		.loc 1 109 0
 269 0128 1C4B     		ldr	r3, .L23+4
 270 012a 1B68     		ldr	r3, [r3]
 271 012c 0133     		adds	r3, r3, #1
 272 012e 1B4A     		ldr	r2, .L23+4
 273 0130 1360     		str	r3, [r2]
 110:.\main.c      ****                 binary[binPos] = 1;
 274              		.loc 1 110 0
 275 0132 1A4B     		ldr	r3, .L23+4
 276 0134 1B68     		ldr	r3, [r3]
 277 0136 1A4A     		ldr	r2, .L23+8
 278 0138 0121     		movs	r1, #1
 279 013a 42F82310 		str	r1, [r2, r3, lsl #2]
 111:.\main.c      ****                 binPos++;
 280              		.loc 1 111 0
 281 013e 174B     		ldr	r3, .L23+4
 282 0140 1B68     		ldr	r3, [r3]
 283 0142 0133     		adds	r3, r3, #1
 284 0144 154A     		ldr	r2, .L23+4
 285 0146 1360     		str	r3, [r2]
 112:.\main.c      ****                 for(i = 0; i < position; i++){
 286              		.loc 1 112 0
ARM GAS  C:\Users\gordon\AppData\Local\Temp\ccIc8IR0.s 			page 8


 287 0148 0023     		movs	r3, #0
 288 014a BB66     		str	r3, [r7, #104]
 289 014c 09E0     		b	.L18
 290              	.L19:
 113:.\main.c      ****                     atoB(lineStr[i]);
 291              		.loc 1 113 0 discriminator 3
 292 014e 3A46     		mov	r2, r7
 293 0150 BB6E     		ldr	r3, [r7, #104]
 294 0152 1344     		add	r3, r3, r2
 295 0154 1B78     		ldrb	r3, [r3]	@ zero_extendqisi2
 296 0156 1846     		mov	r0, r3
 297 0158 FFF7FEFF 		bl	atoB
 112:.\main.c      ****                 for(i = 0; i < position; i++){
 298              		.loc 1 112 0 discriminator 3
 299 015c BB6E     		ldr	r3, [r7, #104]
 300 015e 0133     		adds	r3, r3, #1
 301 0160 BB66     		str	r3, [r7, #104]
 302              	.L18:
 112:.\main.c      ****                 for(i = 0; i < position; i++){
 303              		.loc 1 112 0 is_stmt 0 discriminator 1
 304 0162 97F86E20 		ldrb	r2, [r7, #110]	@ zero_extendqisi2
 305 0166 BB6E     		ldr	r3, [r7, #104]
 306 0168 9A42     		cmp	r2, r3
 307 016a F0DC     		bgt	.L19
 114:.\main.c      ****                 }
 115:.\main.c      ****                 binary[binPos] = 1;//set to high at the end
 308              		.loc 1 115 0 is_stmt 1
 309 016c 0B4B     		ldr	r3, .L23+4
 310 016e 1B68     		ldr	r3, [r3]
 311 0170 0B4A     		ldr	r2, .L23+8
 312 0172 0121     		movs	r1, #1
 313 0174 42F82310 		str	r1, [r2, r3, lsl #2]
 116:.\main.c      ****                 binPos++;
 314              		.loc 1 116 0
 315 0178 084B     		ldr	r3, .L23+4
 316 017a 1B68     		ldr	r3, [r3]
 317 017c 0133     		adds	r3, r3, #1
 318 017e 074A     		ldr	r2, .L23+4
 319 0180 1360     		str	r3, [r2]
 117:.\main.c      ****                 Timer_Start();
 320              		.loc 1 117 0
 321 0182 FFF7FEFF 		bl	Timer_Start
 118:.\main.c      ****                 position = 0;
 322              		.loc 1 118 0
 323 0186 0023     		movs	r3, #0
 324 0188 87F86E30 		strb	r3, [r7, #110]
 325              	.LBE2:
 105:.\main.c      ****                 int i = 0;
 326              		.loc 1 105 0
 327 018c 02E0     		b	.L7
 328              	.L17:
 119:.\main.c      ****             }else flag = 0;
 329              		.loc 1 119 0
 330 018e 0023     		movs	r3, #0
 331 0190 87F86F30 		strb	r3, [r7, #111]
 332              	.L7:
 120:.\main.c      ****         }
ARM GAS  C:\Users\gordon\AppData\Local\Temp\ccIc8IR0.s 			page 9


 121:.\main.c      ****     }   
 333              		.loc 1 121 0
 334 0194 48E7     		b	.L20
 335              	.L24:
 336 0196 00BF     		.align	2
 337              	.L23:
 338 0198 00000000 		.word	TimerHandler
 339 019c 00000000 		.word	binPos
 340 01a0 00000000 		.word	binary
 341              		.cfi_endproc
 342              	.LFE64:
 343              		.size	main, .-main
 344              		.section	.text.atoB,"ax",%progbits
 345              		.align	2
 346              		.global	atoB
 347              		.thumb
 348              		.thumb_func
 349              		.type	atoB, %function
 350              	atoB:
 351              	.LFB65:
 122:.\main.c      **** }
 123:.\main.c      **** 
 124:.\main.c      **** void atoB(uint8 dec)
 125:.\main.c      ****     {
 352              		.loc 1 125 0
 353              		.cfi_startproc
 354              		@ args = 0, pretend = 0, frame = 96
 355              		@ frame_needed = 1, uses_anonymous_args = 0
 356              		@ link register save eliminated.
 357 0000 80B4     		push	{r7}
 358              		.cfi_def_cfa_offset 4
 359              		.cfi_offset 7, -4
 360 0002 99B0     		sub	sp, sp, #100
 361              		.cfi_def_cfa_offset 104
 362 0004 00AF     		add	r7, sp, #0
 363              		.cfi_def_cfa_register 7
 364 0006 0346     		mov	r3, r0
 365 0008 FB71     		strb	r3, [r7, #7]
 126:.\main.c      **** 	  int a[20];//flag "ten" checks if 1 is represented as "10" or "01",
 127:.\main.c      ****       int i=0,j;
 366              		.loc 1 127 0
 367 000a 0023     		movs	r3, #0
 368 000c FB65     		str	r3, [r7, #92]
 128:.\main.c      ****       while(dec>0) 
 369              		.loc 1 128 0
 370 000e 0FE0     		b	.L26
 371              	.L27:
 129:.\main.c      ****       { 
 130:.\main.c      ****            a[i]=dec%2; 
 372              		.loc 1 130 0
 373 0010 FB79     		ldrb	r3, [r7, #7]	@ zero_extendqisi2
 374 0012 03F00102 		and	r2, r3, #1
 375 0016 FB6D     		ldr	r3, [r7, #92]
 376 0018 9B00     		lsls	r3, r3, #2
 377 001a 07F16001 		add	r1, r7, #96
 378 001e 0B44     		add	r3, r3, r1
 379 0020 43F8582C 		str	r2, [r3, #-88]
ARM GAS  C:\Users\gordon\AppData\Local\Temp\ccIc8IR0.s 			page 10


 131:.\main.c      ****            i++; 
 380              		.loc 1 131 0
 381 0024 FB6D     		ldr	r3, [r7, #92]
 382 0026 0133     		adds	r3, r3, #1
 383 0028 FB65     		str	r3, [r7, #92]
 132:.\main.c      ****            dec=dec/2;
 384              		.loc 1 132 0
 385 002a FB79     		ldrb	r3, [r7, #7]	@ zero_extendqisi2
 386 002c 5B08     		lsrs	r3, r3, #1
 387 002e FB71     		strb	r3, [r7, #7]
 388              	.L26:
 128:.\main.c      ****       { 
 389              		.loc 1 128 0
 390 0030 FB79     		ldrb	r3, [r7, #7]	@ zero_extendqisi2
 391 0032 002B     		cmp	r3, #0
 392 0034 ECD1     		bne	.L27
 133:.\main.c      ****       }
 134:.\main.c      ****     if(startBit){
 393              		.loc 1 134 0
 394 0036 424B     		ldr	r3, .L36
 395 0038 1B68     		ldr	r3, [r3]
 396 003a 002B     		cmp	r3, #0
 397 003c 16D0     		beq	.L28
 135:.\main.c      ****       binary[binPos] = 1;
 398              		.loc 1 135 0
 399 003e 414B     		ldr	r3, .L36+4
 400 0040 1B68     		ldr	r3, [r3]
 401 0042 414A     		ldr	r2, .L36+8
 402 0044 0121     		movs	r1, #1
 403 0046 42F82310 		str	r1, [r2, r3, lsl #2]
 136:.\main.c      ****       binPos++;
 404              		.loc 1 136 0
 405 004a 3E4B     		ldr	r3, .L36+4
 406 004c 1B68     		ldr	r3, [r3]
 407 004e 0133     		adds	r3, r3, #1
 408 0050 3C4A     		ldr	r2, .L36+4
 409 0052 1360     		str	r3, [r2]
 137:.\main.c      ****       binary[binPos] = 0;
 410              		.loc 1 137 0
 411 0054 3B4B     		ldr	r3, .L36+4
 412 0056 1B68     		ldr	r3, [r3]
 413 0058 3B4A     		ldr	r2, .L36+8
 414 005a 0021     		movs	r1, #0
 415 005c 42F82310 		str	r1, [r2, r3, lsl #2]
 138:.\main.c      ****       binPos++;
 416              		.loc 1 138 0
 417 0060 384B     		ldr	r3, .L36+4
 418 0062 1B68     		ldr	r3, [r3]
 419 0064 0133     		adds	r3, r3, #1
 420 0066 374A     		ldr	r2, .L36+4
 421 0068 1360     		str	r3, [r2]
 422 006a 15E0     		b	.L29
 423              	.L28:
 139:.\main.c      ****     }else{
 140:.\main.c      ****       binary[binPos] = 0;
 424              		.loc 1 140 0
 425 006c 354B     		ldr	r3, .L36+4
ARM GAS  C:\Users\gordon\AppData\Local\Temp\ccIc8IR0.s 			page 11


 426 006e 1B68     		ldr	r3, [r3]
 427 0070 354A     		ldr	r2, .L36+8
 428 0072 0021     		movs	r1, #0
 429 0074 42F82310 		str	r1, [r2, r3, lsl #2]
 141:.\main.c      ****       binPos++;
 430              		.loc 1 141 0
 431 0078 324B     		ldr	r3, .L36+4
 432 007a 1B68     		ldr	r3, [r3]
 433 007c 0133     		adds	r3, r3, #1
 434 007e 314A     		ldr	r2, .L36+4
 435 0080 1360     		str	r3, [r2]
 142:.\main.c      ****       binary[binPos] = 1;
 436              		.loc 1 142 0
 437 0082 304B     		ldr	r3, .L36+4
 438 0084 1B68     		ldr	r3, [r3]
 439 0086 304A     		ldr	r2, .L36+8
 440 0088 0121     		movs	r1, #1
 441 008a 42F82310 		str	r1, [r2, r3, lsl #2]
 143:.\main.c      ****       binPos++;
 442              		.loc 1 143 0
 443 008e 2D4B     		ldr	r3, .L36+4
 444 0090 1B68     		ldr	r3, [r3]
 445 0092 0133     		adds	r3, r3, #1
 446 0094 2B4A     		ldr	r2, .L36+4
 447 0096 1360     		str	r3, [r2]
 448              	.L29:
 144:.\main.c      ****     }  
 145:.\main.c      ****       for(j=i-1;j>=0;j--) 
 449              		.loc 1 145 0
 450 0098 FB6D     		ldr	r3, [r7, #92]
 451 009a 013B     		subs	r3, r3, #1
 452 009c BB65     		str	r3, [r7, #88]
 453 009e 47E0     		b	.L30
 454              	.L35:
 146:.\main.c      ****       {
 147:.\main.c      ****         if(a[j]){//if 1, ten flag is changed
 455              		.loc 1 147 0
 456 00a0 BB6D     		ldr	r3, [r7, #88]
 457 00a2 9B00     		lsls	r3, r3, #2
 458 00a4 07F16002 		add	r2, r7, #96
 459 00a8 1344     		add	r3, r3, r2
 460 00aa 53F8583C 		ldr	r3, [r3, #-88]
 461 00ae 002B     		cmp	r3, #0
 462 00b0 0AD0     		beq	.L31
 148:.\main.c      ****             if (startBit == 0){startBit = 1;} else startBit = 0;  
 463              		.loc 1 148 0
 464 00b2 234B     		ldr	r3, .L36
 465 00b4 1B68     		ldr	r3, [r3]
 466 00b6 002B     		cmp	r3, #0
 467 00b8 03D1     		bne	.L32
 468              		.loc 1 148 0 is_stmt 0 discriminator 1
 469 00ba 214B     		ldr	r3, .L36
 470 00bc 0122     		movs	r2, #1
 471 00be 1A60     		str	r2, [r3]
 472 00c0 02E0     		b	.L31
 473              	.L32:
 474              		.loc 1 148 0 discriminator 2
ARM GAS  C:\Users\gordon\AppData\Local\Temp\ccIc8IR0.s 			page 12


 475 00c2 1F4B     		ldr	r3, .L36
 476 00c4 0022     		movs	r2, #0
 477 00c6 1A60     		str	r2, [r3]
 478              	.L31:
 149:.\main.c      ****         }
 150:.\main.c      ****         if(startBit){
 479              		.loc 1 150 0 is_stmt 1
 480 00c8 1D4B     		ldr	r3, .L36
 481 00ca 1B68     		ldr	r3, [r3]
 482 00cc 002B     		cmp	r3, #0
 483 00ce 16D0     		beq	.L33
 151:.\main.c      ****             binary[binPos] = 1;
 484              		.loc 1 151 0
 485 00d0 1C4B     		ldr	r3, .L36+4
 486 00d2 1B68     		ldr	r3, [r3]
 487 00d4 1C4A     		ldr	r2, .L36+8
 488 00d6 0121     		movs	r1, #1
 489 00d8 42F82310 		str	r1, [r2, r3, lsl #2]
 152:.\main.c      ****             binPos++;
 490              		.loc 1 152 0
 491 00dc 194B     		ldr	r3, .L36+4
 492 00de 1B68     		ldr	r3, [r3]
 493 00e0 0133     		adds	r3, r3, #1
 494 00e2 184A     		ldr	r2, .L36+4
 495 00e4 1360     		str	r3, [r2]
 153:.\main.c      ****             binary[binPos] = 0;
 496              		.loc 1 153 0
 497 00e6 174B     		ldr	r3, .L36+4
 498 00e8 1B68     		ldr	r3, [r3]
 499 00ea 174A     		ldr	r2, .L36+8
 500 00ec 0021     		movs	r1, #0
 501 00ee 42F82310 		str	r1, [r2, r3, lsl #2]
 154:.\main.c      ****             binPos++;
 502              		.loc 1 154 0
 503 00f2 144B     		ldr	r3, .L36+4
 504 00f4 1B68     		ldr	r3, [r3]
 505 00f6 0133     		adds	r3, r3, #1
 506 00f8 124A     		ldr	r2, .L36+4
 507 00fa 1360     		str	r3, [r2]
 508 00fc 15E0     		b	.L34
 509              	.L33:
 155:.\main.c      ****         }else{
 156:.\main.c      ****             binary[binPos] = 0;
 510              		.loc 1 156 0
 511 00fe 114B     		ldr	r3, .L36+4
 512 0100 1B68     		ldr	r3, [r3]
 513 0102 114A     		ldr	r2, .L36+8
 514 0104 0021     		movs	r1, #0
 515 0106 42F82310 		str	r1, [r2, r3, lsl #2]
 157:.\main.c      ****             binPos++;
 516              		.loc 1 157 0
 517 010a 0E4B     		ldr	r3, .L36+4
 518 010c 1B68     		ldr	r3, [r3]
 519 010e 0133     		adds	r3, r3, #1
 520 0110 0C4A     		ldr	r2, .L36+4
 521 0112 1360     		str	r3, [r2]
 158:.\main.c      ****             binary[binPos] = 1;
ARM GAS  C:\Users\gordon\AppData\Local\Temp\ccIc8IR0.s 			page 13


 522              		.loc 1 158 0
 523 0114 0B4B     		ldr	r3, .L36+4
 524 0116 1B68     		ldr	r3, [r3]
 525 0118 0B4A     		ldr	r2, .L36+8
 526 011a 0121     		movs	r1, #1
 527 011c 42F82310 		str	r1, [r2, r3, lsl #2]
 159:.\main.c      ****             binPos++;
 528              		.loc 1 159 0
 529 0120 084B     		ldr	r3, .L36+4
 530 0122 1B68     		ldr	r3, [r3]
 531 0124 0133     		adds	r3, r3, #1
 532 0126 074A     		ldr	r2, .L36+4
 533 0128 1360     		str	r3, [r2]
 534              	.L34:
 145:.\main.c      ****       {
 535              		.loc 1 145 0 discriminator 2
 536 012a BB6D     		ldr	r3, [r7, #88]
 537 012c 013B     		subs	r3, r3, #1
 538 012e BB65     		str	r3, [r7, #88]
 539              	.L30:
 145:.\main.c      ****       {
 540              		.loc 1 145 0 is_stmt 0 discriminator 1
 541 0130 BB6D     		ldr	r3, [r7, #88]
 542 0132 002B     		cmp	r3, #0
 543 0134 B4DA     		bge	.L35
 160:.\main.c      ****         }
 161:.\main.c      ****       }
 162:.\main.c      ****    }
 544              		.loc 1 162 0 is_stmt 1
 545 0136 6437     		adds	r7, r7, #100
 546              		.cfi_def_cfa_offset 4
 547 0138 BD46     		mov	sp, r7
 548              		.cfi_def_cfa_register 13
 549              		@ sp needed
 550 013a 5DF8047B 		ldr	r7, [sp], #4
 551              		.cfi_restore 7
 552              		.cfi_def_cfa_offset 0
 553 013e 7047     		bx	lr
 554              	.L37:
 555              		.align	2
 556              	.L36:
 557 0140 00000000 		.word	startBit
 558 0144 00000000 		.word	binPos
 559 0148 00000000 		.word	binary
 560              		.cfi_endproc
 561              	.LFE65:
 562              		.size	atoB, .-atoB
 563              		.text
 564              	.Letext0:
 565              		.file 2 "c:\\program files (x86)\\cypress\\psoc creator\\3.3\\psoc creator\\import\\gnu\\arm\\4.9.
 566              		.file 3 "c:\\program files (x86)\\cypress\\psoc creator\\3.3\\psoc creator\\import\\gnu\\arm\\4.9.
 567              		.file 4 "Generated_Source\\PSoC5/cytypes.h"
 568              		.file 5 "Generated_Source\\PSoC5/core_cm3.h"
 569              		.section	.debug_info,"",%progbits
 570              	.Ldebug_info0:
 571 0000 FD010000 		.4byte	0x1fd
 572 0004 0400     		.2byte	0x4
ARM GAS  C:\Users\gordon\AppData\Local\Temp\ccIc8IR0.s 			page 14


 573 0006 00000000 		.4byte	.Ldebug_abbrev0
 574 000a 04       		.byte	0x4
 575 000b 01       		.uleb128 0x1
 576 000c 0A000000 		.4byte	.LASF26
 577 0010 01       		.byte	0x1
 578 0011 98000000 		.4byte	.LASF27
 579 0015 1A010000 		.4byte	.LASF28
 580 0019 00000000 		.4byte	.Ldebug_ranges0+0
 581 001d 00000000 		.4byte	0
 582 0021 00000000 		.4byte	.Ldebug_line0
 583 0025 02       		.uleb128 0x2
 584 0026 01       		.byte	0x1
 585 0027 06       		.byte	0x6
 586 0028 CE010000 		.4byte	.LASF0
 587 002c 02       		.uleb128 0x2
 588 002d 01       		.byte	0x1
 589 002e 08       		.byte	0x8
 590 002f C4000000 		.4byte	.LASF1
 591 0033 02       		.uleb128 0x2
 592 0034 02       		.byte	0x2
 593 0035 05       		.byte	0x5
 594 0036 B5010000 		.4byte	.LASF2
 595 003a 02       		.uleb128 0x2
 596 003b 02       		.byte	0x2
 597 003c 07       		.byte	0x7
 598 003d EE000000 		.4byte	.LASF3
 599 0041 03       		.uleb128 0x3
 600 0042 00000000 		.4byte	.LASF9
 601 0046 02       		.byte	0x2
 602 0047 3F       		.byte	0x3f
 603 0048 4C000000 		.4byte	0x4c
 604 004c 02       		.uleb128 0x2
 605 004d 04       		.byte	0x4
 606 004e 05       		.byte	0x5
 607 004f C5010000 		.4byte	.LASF4
 608 0053 02       		.uleb128 0x2
 609 0054 04       		.byte	0x4
 610 0055 07       		.byte	0x7
 611 0056 DC000000 		.4byte	.LASF5
 612 005a 02       		.uleb128 0x2
 613 005b 08       		.byte	0x8
 614 005c 05       		.byte	0x5
 615 005d 9B010000 		.4byte	.LASF6
 616 0061 02       		.uleb128 0x2
 617 0062 08       		.byte	0x8
 618 0063 07       		.byte	0x7
 619 0064 73010000 		.4byte	.LASF7
 620 0068 04       		.uleb128 0x4
 621 0069 04       		.byte	0x4
 622 006a 05       		.byte	0x5
 623 006b 696E7400 		.ascii	"int\000"
 624 006f 02       		.uleb128 0x2
 625 0070 04       		.byte	0x4
 626 0071 07       		.byte	0x7
 627 0072 66010000 		.4byte	.LASF8
 628 0076 03       		.uleb128 0x3
 629 0077 8A010000 		.4byte	.LASF10
ARM GAS  C:\Users\gordon\AppData\Local\Temp\ccIc8IR0.s 			page 15


 630 007b 03       		.byte	0x3
 631 007c 2C       		.byte	0x2c
 632 007d 41000000 		.4byte	0x41
 633 0081 03       		.uleb128 0x3
 634 0082 BF010000 		.4byte	.LASF11
 635 0086 04       		.byte	0x4
 636 0087 C2       		.byte	0xc2
 637 0088 2C000000 		.4byte	0x2c
 638 008c 02       		.uleb128 0x2
 639 008d 04       		.byte	0x4
 640 008e 04       		.byte	0x4
 641 008f B5000000 		.4byte	.LASF12
 642 0093 02       		.uleb128 0x2
 643 0094 08       		.byte	0x8
 644 0095 04       		.byte	0x4
 645 0096 0E010000 		.4byte	.LASF13
 646 009a 02       		.uleb128 0x2
 647 009b 01       		.byte	0x1
 648 009c 08       		.byte	0x8
 649 009d A9010000 		.4byte	.LASF14
 650 00a1 05       		.uleb128 0x5
 651 00a2 D2000000 		.4byte	.LASF15
 652 00a6 04       		.byte	0x4
 653 00a7 6C01     		.2byte	0x16c
 654 00a9 AD000000 		.4byte	0xad
 655 00ad 06       		.uleb128 0x6
 656 00ae 81000000 		.4byte	0x81
 657 00b2 02       		.uleb128 0x2
 658 00b3 04       		.byte	0x4
 659 00b4 07       		.byte	0x7
 660 00b5 92010000 		.4byte	.LASF16
 661 00b9 07       		.uleb128 0x7
 662 00ba A1000000 		.4byte	.LASF29
 663 00be 01       		.byte	0x1
 664 00bf 2A       		.byte	0x2a
 665 00c0 00000000 		.4byte	.LFB63
 666 00c4 44000000 		.4byte	.LFE63-.LFB63
 667 00c8 01       		.uleb128 0x1
 668 00c9 9C       		.byte	0x9c
 669 00ca 08       		.uleb128 0x8
 670 00cb 15010000 		.4byte	.LASF20
 671 00cf 01       		.byte	0x1
 672 00d0 31       		.byte	0x31
 673 00d1 68000000 		.4byte	0x68
 674 00d5 00000000 		.4byte	.LFB64
 675 00d9 A4010000 		.4byte	.LFE64-.LFB64
 676 00dd 01       		.uleb128 0x1
 677 00de 9C       		.byte	0x9c
 678 00df 32010000 		.4byte	0x132
 679 00e3 09       		.uleb128 0x9
 680 00e4 727800   		.ascii	"rx\000"
 681 00e7 01       		.byte	0x1
 682 00e8 33       		.byte	0x33
 683 00e9 9A000000 		.4byte	0x9a
 684 00ed 02       		.uleb128 0x2
 685 00ee 91       		.byte	0x91
 686 00ef 6F       		.sleb128 -17
ARM GAS  C:\Users\gordon\AppData\Local\Temp\ccIc8IR0.s 			page 16


 687 00f0 0A       		.uleb128 0xa
 688 00f1 61010000 		.4byte	.LASF17
 689 00f5 01       		.byte	0x1
 690 00f6 34       		.byte	0x34
 691 00f7 81000000 		.4byte	0x81
 692 00fb 02       		.uleb128 0x2
 693 00fc 91       		.byte	0x91
 694 00fd 77       		.sleb128 -9
 695 00fe 0A       		.uleb128 0xa
 696 00ff DA010000 		.4byte	.LASF18
 697 0103 01       		.byte	0x1
 698 0104 35       		.byte	0x35
 699 0105 32010000 		.4byte	0x132
 700 0109 03       		.uleb128 0x3
 701 010a 91       		.byte	0x91
 702 010b 887F     		.sleb128 -120
 703 010d 0A       		.uleb128 0xa
 704 010e 58010000 		.4byte	.LASF19
 705 0112 01       		.byte	0x1
 706 0113 36       		.byte	0x36
 707 0114 81000000 		.4byte	0x81
 708 0118 02       		.uleb128 0x2
 709 0119 91       		.byte	0x91
 710 011a 76       		.sleb128 -10
 711 011b 0B       		.uleb128 0xb
 712 011c 12010000 		.4byte	.LBB2
 713 0120 7A000000 		.4byte	.LBE2-.LBB2
 714 0124 09       		.uleb128 0x9
 715 0125 6900     		.ascii	"i\000"
 716 0127 01       		.byte	0x1
 717 0128 6A       		.byte	0x6a
 718 0129 68000000 		.4byte	0x68
 719 012d 02       		.uleb128 0x2
 720 012e 91       		.byte	0x91
 721 012f 70       		.sleb128 -16
 722 0130 00       		.byte	0
 723 0131 00       		.byte	0
 724 0132 0C       		.uleb128 0xc
 725 0133 9A000000 		.4byte	0x9a
 726 0137 42010000 		.4byte	0x142
 727 013b 0D       		.uleb128 0xd
 728 013c B2000000 		.4byte	0xb2
 729 0140 63       		.byte	0x63
 730 0141 00       		.byte	0
 731 0142 0E       		.uleb128 0xe
 732 0143 D7000000 		.4byte	.LASF21
 733 0147 01       		.byte	0x1
 734 0148 7C       		.byte	0x7c
 735 0149 00000000 		.4byte	.LFB65
 736 014d 4C010000 		.4byte	.LFE65-.LFB65
 737 0151 01       		.uleb128 0x1
 738 0152 9C       		.byte	0x9c
 739 0153 8C010000 		.4byte	0x18c
 740 0157 0F       		.uleb128 0xf
 741 0158 64656300 		.ascii	"dec\000"
 742 015c 01       		.byte	0x1
 743 015d 7C       		.byte	0x7c
ARM GAS  C:\Users\gordon\AppData\Local\Temp\ccIc8IR0.s 			page 17


 744 015e 81000000 		.4byte	0x81
 745 0162 03       		.uleb128 0x3
 746 0163 91       		.byte	0x91
 747 0164 9F7F     		.sleb128 -97
 748 0166 09       		.uleb128 0x9
 749 0167 6100     		.ascii	"a\000"
 750 0169 01       		.byte	0x1
 751 016a 7E       		.byte	0x7e
 752 016b 8C010000 		.4byte	0x18c
 753 016f 03       		.uleb128 0x3
 754 0170 91       		.byte	0x91
 755 0171 A07F     		.sleb128 -96
 756 0173 09       		.uleb128 0x9
 757 0174 6900     		.ascii	"i\000"
 758 0176 01       		.byte	0x1
 759 0177 7F       		.byte	0x7f
 760 0178 68000000 		.4byte	0x68
 761 017c 02       		.uleb128 0x2
 762 017d 91       		.byte	0x91
 763 017e 74       		.sleb128 -12
 764 017f 09       		.uleb128 0x9
 765 0180 6A00     		.ascii	"j\000"
 766 0182 01       		.byte	0x1
 767 0183 7F       		.byte	0x7f
 768 0184 68000000 		.4byte	0x68
 769 0188 02       		.uleb128 0x2
 770 0189 91       		.byte	0x91
 771 018a 70       		.sleb128 -16
 772 018b 00       		.byte	0
 773 018c 0C       		.uleb128 0xc
 774 018d 68000000 		.4byte	0x68
 775 0191 9C010000 		.4byte	0x19c
 776 0195 0D       		.uleb128 0xd
 777 0196 B2000000 		.4byte	0xb2
 778 019a 13       		.byte	0x13
 779 019b 00       		.byte	0
 780 019c 10       		.uleb128 0x10
 781 019d 01010000 		.4byte	.LASF22
 782 01a1 05       		.byte	0x5
 783 01a2 2A06     		.2byte	0x62a
 784 01a4 A8010000 		.4byte	0x1a8
 785 01a8 06       		.uleb128 0x6
 786 01a9 76000000 		.4byte	0x76
 787 01ad 0C       		.uleb128 0xc
 788 01ae 68000000 		.4byte	0x68
 789 01b2 BE010000 		.4byte	0x1be
 790 01b6 11       		.uleb128 0x11
 791 01b7 B2000000 		.4byte	0xb2
 792 01bb 1F03     		.2byte	0x31f
 793 01bd 00       		.byte	0
 794 01be 12       		.uleb128 0x12
 795 01bf AE010000 		.4byte	.LASF23
 796 01c3 01       		.byte	0x1
 797 01c4 28       		.byte	0x28
 798 01c5 AD010000 		.4byte	0x1ad
 799 01c9 05       		.uleb128 0x5
 800 01ca 03       		.byte	0x3
ARM GAS  C:\Users\gordon\AppData\Local\Temp\ccIc8IR0.s 			page 18


 801 01cb 00000000 		.4byte	binary
 802 01cf 12       		.uleb128 0x12
 803 01d0 AE000000 		.4byte	.LASF24
 804 01d4 01       		.byte	0x1
 805 01d5 29       		.byte	0x29
 806 01d6 68000000 		.4byte	0x68
 807 01da 05       		.uleb128 0x5
 808 01db 03       		.byte	0x3
 809 01dc 00000000 		.4byte	binPos
 810 01e0 13       		.uleb128 0x13
 811 01e1 6B00     		.ascii	"k\000"
 812 01e3 01       		.byte	0x1
 813 01e4 29       		.byte	0x29
 814 01e5 68000000 		.4byte	0x68
 815 01e9 05       		.uleb128 0x5
 816 01ea 03       		.byte	0x3
 817 01eb 00000000 		.4byte	k
 818 01ef 12       		.uleb128 0x12
 819 01f0 BB000000 		.4byte	.LASF25
 820 01f4 01       		.byte	0x1
 821 01f5 29       		.byte	0x29
 822 01f6 68000000 		.4byte	0x68
 823 01fa 05       		.uleb128 0x5
 824 01fb 03       		.byte	0x3
 825 01fc 00000000 		.4byte	startBit
 826 0200 00       		.byte	0
 827              		.section	.debug_abbrev,"",%progbits
 828              	.Ldebug_abbrev0:
 829 0000 01       		.uleb128 0x1
 830 0001 11       		.uleb128 0x11
 831 0002 01       		.byte	0x1
 832 0003 25       		.uleb128 0x25
 833 0004 0E       		.uleb128 0xe
 834 0005 13       		.uleb128 0x13
 835 0006 0B       		.uleb128 0xb
 836 0007 03       		.uleb128 0x3
 837 0008 0E       		.uleb128 0xe
 838 0009 1B       		.uleb128 0x1b
 839 000a 0E       		.uleb128 0xe
 840 000b 55       		.uleb128 0x55
 841 000c 17       		.uleb128 0x17
 842 000d 11       		.uleb128 0x11
 843 000e 01       		.uleb128 0x1
 844 000f 10       		.uleb128 0x10
 845 0010 17       		.uleb128 0x17
 846 0011 00       		.byte	0
 847 0012 00       		.byte	0
 848 0013 02       		.uleb128 0x2
 849 0014 24       		.uleb128 0x24
 850 0015 00       		.byte	0
 851 0016 0B       		.uleb128 0xb
 852 0017 0B       		.uleb128 0xb
 853 0018 3E       		.uleb128 0x3e
 854 0019 0B       		.uleb128 0xb
 855 001a 03       		.uleb128 0x3
 856 001b 0E       		.uleb128 0xe
 857 001c 00       		.byte	0
ARM GAS  C:\Users\gordon\AppData\Local\Temp\ccIc8IR0.s 			page 19


 858 001d 00       		.byte	0
 859 001e 03       		.uleb128 0x3
 860 001f 16       		.uleb128 0x16
 861 0020 00       		.byte	0
 862 0021 03       		.uleb128 0x3
 863 0022 0E       		.uleb128 0xe
 864 0023 3A       		.uleb128 0x3a
 865 0024 0B       		.uleb128 0xb
 866 0025 3B       		.uleb128 0x3b
 867 0026 0B       		.uleb128 0xb
 868 0027 49       		.uleb128 0x49
 869 0028 13       		.uleb128 0x13
 870 0029 00       		.byte	0
 871 002a 00       		.byte	0
 872 002b 04       		.uleb128 0x4
 873 002c 24       		.uleb128 0x24
 874 002d 00       		.byte	0
 875 002e 0B       		.uleb128 0xb
 876 002f 0B       		.uleb128 0xb
 877 0030 3E       		.uleb128 0x3e
 878 0031 0B       		.uleb128 0xb
 879 0032 03       		.uleb128 0x3
 880 0033 08       		.uleb128 0x8
 881 0034 00       		.byte	0
 882 0035 00       		.byte	0
 883 0036 05       		.uleb128 0x5
 884 0037 16       		.uleb128 0x16
 885 0038 00       		.byte	0
 886 0039 03       		.uleb128 0x3
 887 003a 0E       		.uleb128 0xe
 888 003b 3A       		.uleb128 0x3a
 889 003c 0B       		.uleb128 0xb
 890 003d 3B       		.uleb128 0x3b
 891 003e 05       		.uleb128 0x5
 892 003f 49       		.uleb128 0x49
 893 0040 13       		.uleb128 0x13
 894 0041 00       		.byte	0
 895 0042 00       		.byte	0
 896 0043 06       		.uleb128 0x6
 897 0044 35       		.uleb128 0x35
 898 0045 00       		.byte	0
 899 0046 49       		.uleb128 0x49
 900 0047 13       		.uleb128 0x13
 901 0048 00       		.byte	0
 902 0049 00       		.byte	0
 903 004a 07       		.uleb128 0x7
 904 004b 2E       		.uleb128 0x2e
 905 004c 00       		.byte	0
 906 004d 3F       		.uleb128 0x3f
 907 004e 19       		.uleb128 0x19
 908 004f 03       		.uleb128 0x3
 909 0050 0E       		.uleb128 0xe
 910 0051 3A       		.uleb128 0x3a
 911 0052 0B       		.uleb128 0xb
 912 0053 3B       		.uleb128 0x3b
 913 0054 0B       		.uleb128 0xb
 914 0055 27       		.uleb128 0x27
ARM GAS  C:\Users\gordon\AppData\Local\Temp\ccIc8IR0.s 			page 20


 915 0056 19       		.uleb128 0x19
 916 0057 11       		.uleb128 0x11
 917 0058 01       		.uleb128 0x1
 918 0059 12       		.uleb128 0x12
 919 005a 06       		.uleb128 0x6
 920 005b 40       		.uleb128 0x40
 921 005c 18       		.uleb128 0x18
 922 005d 9642     		.uleb128 0x2116
 923 005f 19       		.uleb128 0x19
 924 0060 00       		.byte	0
 925 0061 00       		.byte	0
 926 0062 08       		.uleb128 0x8
 927 0063 2E       		.uleb128 0x2e
 928 0064 01       		.byte	0x1
 929 0065 3F       		.uleb128 0x3f
 930 0066 19       		.uleb128 0x19
 931 0067 03       		.uleb128 0x3
 932 0068 0E       		.uleb128 0xe
 933 0069 3A       		.uleb128 0x3a
 934 006a 0B       		.uleb128 0xb
 935 006b 3B       		.uleb128 0x3b
 936 006c 0B       		.uleb128 0xb
 937 006d 49       		.uleb128 0x49
 938 006e 13       		.uleb128 0x13
 939 006f 11       		.uleb128 0x11
 940 0070 01       		.uleb128 0x1
 941 0071 12       		.uleb128 0x12
 942 0072 06       		.uleb128 0x6
 943 0073 40       		.uleb128 0x40
 944 0074 18       		.uleb128 0x18
 945 0075 9642     		.uleb128 0x2116
 946 0077 19       		.uleb128 0x19
 947 0078 01       		.uleb128 0x1
 948 0079 13       		.uleb128 0x13
 949 007a 00       		.byte	0
 950 007b 00       		.byte	0
 951 007c 09       		.uleb128 0x9
 952 007d 34       		.uleb128 0x34
 953 007e 00       		.byte	0
 954 007f 03       		.uleb128 0x3
 955 0080 08       		.uleb128 0x8
 956 0081 3A       		.uleb128 0x3a
 957 0082 0B       		.uleb128 0xb
 958 0083 3B       		.uleb128 0x3b
 959 0084 0B       		.uleb128 0xb
 960 0085 49       		.uleb128 0x49
 961 0086 13       		.uleb128 0x13
 962 0087 02       		.uleb128 0x2
 963 0088 18       		.uleb128 0x18
 964 0089 00       		.byte	0
 965 008a 00       		.byte	0
 966 008b 0A       		.uleb128 0xa
 967 008c 34       		.uleb128 0x34
 968 008d 00       		.byte	0
 969 008e 03       		.uleb128 0x3
 970 008f 0E       		.uleb128 0xe
 971 0090 3A       		.uleb128 0x3a
ARM GAS  C:\Users\gordon\AppData\Local\Temp\ccIc8IR0.s 			page 21


 972 0091 0B       		.uleb128 0xb
 973 0092 3B       		.uleb128 0x3b
 974 0093 0B       		.uleb128 0xb
 975 0094 49       		.uleb128 0x49
 976 0095 13       		.uleb128 0x13
 977 0096 02       		.uleb128 0x2
 978 0097 18       		.uleb128 0x18
 979 0098 00       		.byte	0
 980 0099 00       		.byte	0
 981 009a 0B       		.uleb128 0xb
 982 009b 0B       		.uleb128 0xb
 983 009c 01       		.byte	0x1
 984 009d 11       		.uleb128 0x11
 985 009e 01       		.uleb128 0x1
 986 009f 12       		.uleb128 0x12
 987 00a0 06       		.uleb128 0x6
 988 00a1 00       		.byte	0
 989 00a2 00       		.byte	0
 990 00a3 0C       		.uleb128 0xc
 991 00a4 01       		.uleb128 0x1
 992 00a5 01       		.byte	0x1
 993 00a6 49       		.uleb128 0x49
 994 00a7 13       		.uleb128 0x13
 995 00a8 01       		.uleb128 0x1
 996 00a9 13       		.uleb128 0x13
 997 00aa 00       		.byte	0
 998 00ab 00       		.byte	0
 999 00ac 0D       		.uleb128 0xd
 1000 00ad 21       		.uleb128 0x21
 1001 00ae 00       		.byte	0
 1002 00af 49       		.uleb128 0x49
 1003 00b0 13       		.uleb128 0x13
 1004 00b1 2F       		.uleb128 0x2f
 1005 00b2 0B       		.uleb128 0xb
 1006 00b3 00       		.byte	0
 1007 00b4 00       		.byte	0
 1008 00b5 0E       		.uleb128 0xe
 1009 00b6 2E       		.uleb128 0x2e
 1010 00b7 01       		.byte	0x1
 1011 00b8 3F       		.uleb128 0x3f
 1012 00b9 19       		.uleb128 0x19
 1013 00ba 03       		.uleb128 0x3
 1014 00bb 0E       		.uleb128 0xe
 1015 00bc 3A       		.uleb128 0x3a
 1016 00bd 0B       		.uleb128 0xb
 1017 00be 3B       		.uleb128 0x3b
 1018 00bf 0B       		.uleb128 0xb
 1019 00c0 27       		.uleb128 0x27
 1020 00c1 19       		.uleb128 0x19
 1021 00c2 11       		.uleb128 0x11
 1022 00c3 01       		.uleb128 0x1
 1023 00c4 12       		.uleb128 0x12
 1024 00c5 06       		.uleb128 0x6
 1025 00c6 40       		.uleb128 0x40
 1026 00c7 18       		.uleb128 0x18
 1027 00c8 9742     		.uleb128 0x2117
 1028 00ca 19       		.uleb128 0x19
ARM GAS  C:\Users\gordon\AppData\Local\Temp\ccIc8IR0.s 			page 22


 1029 00cb 01       		.uleb128 0x1
 1030 00cc 13       		.uleb128 0x13
 1031 00cd 00       		.byte	0
 1032 00ce 00       		.byte	0
 1033 00cf 0F       		.uleb128 0xf
 1034 00d0 05       		.uleb128 0x5
 1035 00d1 00       		.byte	0
 1036 00d2 03       		.uleb128 0x3
 1037 00d3 08       		.uleb128 0x8
 1038 00d4 3A       		.uleb128 0x3a
 1039 00d5 0B       		.uleb128 0xb
 1040 00d6 3B       		.uleb128 0x3b
 1041 00d7 0B       		.uleb128 0xb
 1042 00d8 49       		.uleb128 0x49
 1043 00d9 13       		.uleb128 0x13
 1044 00da 02       		.uleb128 0x2
 1045 00db 18       		.uleb128 0x18
 1046 00dc 00       		.byte	0
 1047 00dd 00       		.byte	0
 1048 00de 10       		.uleb128 0x10
 1049 00df 34       		.uleb128 0x34
 1050 00e0 00       		.byte	0
 1051 00e1 03       		.uleb128 0x3
 1052 00e2 0E       		.uleb128 0xe
 1053 00e3 3A       		.uleb128 0x3a
 1054 00e4 0B       		.uleb128 0xb
 1055 00e5 3B       		.uleb128 0x3b
 1056 00e6 05       		.uleb128 0x5
 1057 00e7 49       		.uleb128 0x49
 1058 00e8 13       		.uleb128 0x13
 1059 00e9 3F       		.uleb128 0x3f
 1060 00ea 19       		.uleb128 0x19
 1061 00eb 3C       		.uleb128 0x3c
 1062 00ec 19       		.uleb128 0x19
 1063 00ed 00       		.byte	0
 1064 00ee 00       		.byte	0
 1065 00ef 11       		.uleb128 0x11
 1066 00f0 21       		.uleb128 0x21
 1067 00f1 00       		.byte	0
 1068 00f2 49       		.uleb128 0x49
 1069 00f3 13       		.uleb128 0x13
 1070 00f4 2F       		.uleb128 0x2f
 1071 00f5 05       		.uleb128 0x5
 1072 00f6 00       		.byte	0
 1073 00f7 00       		.byte	0
 1074 00f8 12       		.uleb128 0x12
 1075 00f9 34       		.uleb128 0x34
 1076 00fa 00       		.byte	0
 1077 00fb 03       		.uleb128 0x3
 1078 00fc 0E       		.uleb128 0xe
 1079 00fd 3A       		.uleb128 0x3a
 1080 00fe 0B       		.uleb128 0xb
 1081 00ff 3B       		.uleb128 0x3b
 1082 0100 0B       		.uleb128 0xb
 1083 0101 49       		.uleb128 0x49
 1084 0102 13       		.uleb128 0x13
 1085 0103 3F       		.uleb128 0x3f
ARM GAS  C:\Users\gordon\AppData\Local\Temp\ccIc8IR0.s 			page 23


 1086 0104 19       		.uleb128 0x19
 1087 0105 02       		.uleb128 0x2
 1088 0106 18       		.uleb128 0x18
 1089 0107 00       		.byte	0
 1090 0108 00       		.byte	0
 1091 0109 13       		.uleb128 0x13
 1092 010a 34       		.uleb128 0x34
 1093 010b 00       		.byte	0
 1094 010c 03       		.uleb128 0x3
 1095 010d 08       		.uleb128 0x8
 1096 010e 3A       		.uleb128 0x3a
 1097 010f 0B       		.uleb128 0xb
 1098 0110 3B       		.uleb128 0x3b
 1099 0111 0B       		.uleb128 0xb
 1100 0112 49       		.uleb128 0x49
 1101 0113 13       		.uleb128 0x13
 1102 0114 3F       		.uleb128 0x3f
 1103 0115 19       		.uleb128 0x19
 1104 0116 02       		.uleb128 0x2
 1105 0117 18       		.uleb128 0x18
 1106 0118 00       		.byte	0
 1107 0119 00       		.byte	0
 1108 011a 00       		.byte	0
 1109              		.section	.debug_aranges,"",%progbits
 1110 0000 2C000000 		.4byte	0x2c
 1111 0004 0200     		.2byte	0x2
 1112 0006 00000000 		.4byte	.Ldebug_info0
 1113 000a 04       		.byte	0x4
 1114 000b 00       		.byte	0
 1115 000c 0000     		.2byte	0
 1116 000e 0000     		.2byte	0
 1117 0010 00000000 		.4byte	.LFB63
 1118 0014 44000000 		.4byte	.LFE63-.LFB63
 1119 0018 00000000 		.4byte	.LFB64
 1120 001c A4010000 		.4byte	.LFE64-.LFB64
 1121 0020 00000000 		.4byte	.LFB65
 1122 0024 4C010000 		.4byte	.LFE65-.LFB65
 1123 0028 00000000 		.4byte	0
 1124 002c 00000000 		.4byte	0
 1125              		.section	.debug_ranges,"",%progbits
 1126              	.Ldebug_ranges0:
 1127 0000 00000000 		.4byte	.LFB63
 1128 0004 44000000 		.4byte	.LFE63
 1129 0008 00000000 		.4byte	.LFB64
 1130 000c A4010000 		.4byte	.LFE64
 1131 0010 00000000 		.4byte	.LFB65
 1132 0014 4C010000 		.4byte	.LFE65
 1133 0018 00000000 		.4byte	0
 1134 001c 00000000 		.4byte	0
 1135              		.section	.debug_line,"",%progbits
 1136              	.Ldebug_line0:
 1137 0000 1D020000 		.section	.debug_str,"MS",%progbits,1
 1137      02004901 
 1137      00000201 
 1137      FB0E0D00 
 1137      01010101 
 1138              	.LASF9:
ARM GAS  C:\Users\gordon\AppData\Local\Temp\ccIc8IR0.s 			page 24


 1139 0000 5F5F696E 		.ascii	"__int32_t\000"
 1139      7433325F 
 1139      7400
 1140              	.LASF26:
 1141 000a 474E5520 		.ascii	"GNU C 4.9.3 20150303 (release) [ARM/embedded-4_9-br"
 1141      4320342E 
 1141      392E3320 
 1141      32303135 
 1141      30333033 
 1142 003d 616E6368 		.ascii	"anch revision 221220] -mcpu=cortex-m3 -mthumb -g -O"
 1142      20726576 
 1142      6973696F 
 1142      6E203232 
 1142      31323230 
 1143 0070 30202D66 		.ascii	"0 -ffunction-sections -ffat-lto-objects\000"
 1143      66756E63 
 1143      74696F6E 
 1143      2D736563 
 1143      74696F6E 
 1144              	.LASF27:
 1145 0098 2E5C6D61 		.ascii	".\\main.c\000"
 1145      696E2E63 
 1145      00
 1146              	.LASF29:
 1147 00a1 54696D65 		.ascii	"TimerHandler\000"
 1147      7248616E 
 1147      646C6572 
 1147      00
 1148              	.LASF24:
 1149 00ae 62696E50 		.ascii	"binPos\000"
 1149      6F7300
 1150              	.LASF12:
 1151 00b5 666C6F61 		.ascii	"float\000"
 1151      7400
 1152              	.LASF25:
 1153 00bb 73746172 		.ascii	"startBit\000"
 1153      74426974 
 1153      00
 1154              	.LASF1:
 1155 00c4 756E7369 		.ascii	"unsigned char\000"
 1155      676E6564 
 1155      20636861 
 1155      7200
 1156              	.LASF15:
 1157 00d2 72656738 		.ascii	"reg8\000"
 1157      00
 1158              	.LASF21:
 1159 00d7 61746F42 		.ascii	"atoB\000"
 1159      00
 1160              	.LASF5:
 1161 00dc 6C6F6E67 		.ascii	"long unsigned int\000"
 1161      20756E73 
 1161      69676E65 
 1161      6420696E 
 1161      7400
 1162              	.LASF3:
 1163 00ee 73686F72 		.ascii	"short unsigned int\000"
ARM GAS  C:\Users\gordon\AppData\Local\Temp\ccIc8IR0.s 			page 25


 1163      7420756E 
 1163      7369676E 
 1163      65642069 
 1163      6E7400
 1164              	.LASF22:
 1165 0101 49544D5F 		.ascii	"ITM_RxBuffer\000"
 1165      52784275 
 1165      66666572 
 1165      00
 1166              	.LASF13:
 1167 010e 646F7562 		.ascii	"double\000"
 1167      6C6500
 1168              	.LASF20:
 1169 0115 6D61696E 		.ascii	"main\000"
 1169      00
 1170              	.LASF28:
 1171 011a 5C5C4D61 		.ascii	"\\\\Mac\\Home\\Documents\\PSoC Creator\\USB_UART01\\"
 1171      635C486F 
 1171      6D655C44 
 1171      6F63756D 
 1171      656E7473 
 1172 0147 5553425F 		.ascii	"USB_UART01.cydsn\000"
 1172      55415254 
 1172      30312E63 
 1172      7964736E 
 1172      00
 1173              	.LASF19:
 1174 0158 706F7369 		.ascii	"position\000"
 1174      74696F6E 
 1174      00
 1175              	.LASF17:
 1176 0161 666C6167 		.ascii	"flag\000"
 1176      00
 1177              	.LASF8:
 1178 0166 756E7369 		.ascii	"unsigned int\000"
 1178      676E6564 
 1178      20696E74 
 1178      00
 1179              	.LASF7:
 1180 0173 6C6F6E67 		.ascii	"long long unsigned int\000"
 1180      206C6F6E 
 1180      6720756E 
 1180      7369676E 
 1180      65642069 
 1181              	.LASF10:
 1182 018a 696E7433 		.ascii	"int32_t\000"
 1182      325F7400 
 1183              	.LASF16:
 1184 0192 73697A65 		.ascii	"sizetype\000"
 1184      74797065 
 1184      00
 1185              	.LASF6:
 1186 019b 6C6F6E67 		.ascii	"long long int\000"
 1186      206C6F6E 
 1186      6720696E 
 1186      7400
 1187              	.LASF14:
ARM GAS  C:\Users\gordon\AppData\Local\Temp\ccIc8IR0.s 			page 26


 1188 01a9 63686172 		.ascii	"char\000"
 1188      00
 1189              	.LASF23:
 1190 01ae 62696E61 		.ascii	"binary\000"
 1190      727900
 1191              	.LASF2:
 1192 01b5 73686F72 		.ascii	"short int\000"
 1192      7420696E 
 1192      7400
 1193              	.LASF11:
 1194 01bf 75696E74 		.ascii	"uint8\000"
 1194      3800
 1195              	.LASF4:
 1196 01c5 6C6F6E67 		.ascii	"long int\000"
 1196      20696E74 
 1196      00
 1197              	.LASF0:
 1198 01ce 7369676E 		.ascii	"signed char\000"
 1198      65642063 
 1198      68617200 
 1199              	.LASF18:
 1200 01da 6C696E65 		.ascii	"lineStr\000"
 1200      53747200 
 1201              		.ident	"GCC: (GNU Tools for ARM Embedded Processors) 4.9.3 20150303 (release) [ARM/embedded-4_9-br
