ARM GAS  C:\Users\mrowiecn\AppData\Local\Temp\ccZwfoFH.s 			page 1


   1              		.syntax unified
   2              		.cpu cortex-m3
   3              		.fpu softvfp
   4              		.eabi_attribute 20, 1
   5              		.eabi_attribute 21, 1
   6              		.eabi_attribute 23, 3
   7              		.eabi_attribute 24, 1
   8              		.eabi_attribute 25, 1
   9              		.eabi_attribute 26, 1
  10              		.eabi_attribute 30, 6
  11              		.eabi_attribute 34, 1
  12              		.eabi_attribute 18, 4
  13              		.thumb
  14              		.file	"Receive.c"
  15              		.text
  16              	.Ltext0:
  17              		.cfi_sections	.debug_frame
  18              		.section	.text.Receive_Write,"ax",%progbits
  19              		.align	2
  20              		.global	Receive_Write
  21              		.thumb
  22              		.thumb_func
  23              		.type	Receive_Write, %function
  24              	Receive_Write:
  25              	.LFB0:
  26              		.file 1 ".\\Generated_Source\\PSoC5\\Receive.c"
   1:.\Generated_Source\PSoC5/Receive.c **** /*******************************************************************************
   2:.\Generated_Source\PSoC5/Receive.c **** * File Name: Receive.c  
   3:.\Generated_Source\PSoC5/Receive.c **** * Version 2.10
   4:.\Generated_Source\PSoC5/Receive.c **** *
   5:.\Generated_Source\PSoC5/Receive.c **** * Description:
   6:.\Generated_Source\PSoC5/Receive.c **** *  This file contains API to enable firmware control of a Pins component.
   7:.\Generated_Source\PSoC5/Receive.c **** *
   8:.\Generated_Source\PSoC5/Receive.c **** * Note:
   9:.\Generated_Source\PSoC5/Receive.c **** *
  10:.\Generated_Source\PSoC5/Receive.c **** ********************************************************************************
  11:.\Generated_Source\PSoC5/Receive.c **** * Copyright 2008-2014, Cypress Semiconductor Corporation.  All rights reserved.
  12:.\Generated_Source\PSoC5/Receive.c **** * You may use this file only in accordance with the license, terms, conditions, 
  13:.\Generated_Source\PSoC5/Receive.c **** * disclaimers, and limitations in the end user license agreement accompanying 
  14:.\Generated_Source\PSoC5/Receive.c **** * the software package with which this file was provided.
  15:.\Generated_Source\PSoC5/Receive.c **** *******************************************************************************/
  16:.\Generated_Source\PSoC5/Receive.c **** 
  17:.\Generated_Source\PSoC5/Receive.c **** #include "cytypes.h"
  18:.\Generated_Source\PSoC5/Receive.c **** #include "Receive.h"
  19:.\Generated_Source\PSoC5/Receive.c **** 
  20:.\Generated_Source\PSoC5/Receive.c **** /* APIs are not generated for P15[7:6] on PSoC 5 */
  21:.\Generated_Source\PSoC5/Receive.c **** #if !(CY_PSOC5A &&\
  22:.\Generated_Source\PSoC5/Receive.c **** 	 Receive__PORT == 15 && ((Receive__MASK & 0xC0) != 0))
  23:.\Generated_Source\PSoC5/Receive.c **** 
  24:.\Generated_Source\PSoC5/Receive.c **** 
  25:.\Generated_Source\PSoC5/Receive.c **** /*******************************************************************************
  26:.\Generated_Source\PSoC5/Receive.c **** * Function Name: Receive_Write
  27:.\Generated_Source\PSoC5/Receive.c **** ********************************************************************************
  28:.\Generated_Source\PSoC5/Receive.c **** *
  29:.\Generated_Source\PSoC5/Receive.c **** * Summary:
  30:.\Generated_Source\PSoC5/Receive.c **** *  Assign a new value to the digital port's data output register.  
  31:.\Generated_Source\PSoC5/Receive.c **** *
ARM GAS  C:\Users\mrowiecn\AppData\Local\Temp\ccZwfoFH.s 			page 2


  32:.\Generated_Source\PSoC5/Receive.c **** * Parameters:  
  33:.\Generated_Source\PSoC5/Receive.c **** *  prtValue:  The value to be assigned to the Digital Port. 
  34:.\Generated_Source\PSoC5/Receive.c **** *
  35:.\Generated_Source\PSoC5/Receive.c **** * Return: 
  36:.\Generated_Source\PSoC5/Receive.c **** *  None
  37:.\Generated_Source\PSoC5/Receive.c **** *  
  38:.\Generated_Source\PSoC5/Receive.c **** *******************************************************************************/
  39:.\Generated_Source\PSoC5/Receive.c **** void Receive_Write(uint8 value) 
  40:.\Generated_Source\PSoC5/Receive.c **** {
  27              		.loc 1 40 0
  28              		.cfi_startproc
  29              		@ args = 0, pretend = 0, frame = 16
  30              		@ frame_needed = 1, uses_anonymous_args = 0
  31              		@ link register save eliminated.
  32 0000 80B4     		push	{r7}
  33              		.cfi_def_cfa_offset 4
  34              		.cfi_offset 7, -4
  35 0002 85B0     		sub	sp, sp, #20
  36              		.cfi_def_cfa_offset 24
  37 0004 00AF     		add	r7, sp, #0
  38              		.cfi_def_cfa_register 7
  39 0006 0346     		mov	r3, r0
  40 0008 FB71     		strb	r3, [r7, #7]
  41:.\Generated_Source\PSoC5/Receive.c ****     uint8 staticBits = (Receive_DR & (uint8)(~Receive_MASK));
  41              		.loc 1 41 0
  42 000a 0A4B     		ldr	r3, .L2
  43 000c 1B78     		ldrb	r3, [r3]
  44 000e DBB2     		uxtb	r3, r3
  45 0010 23F00103 		bic	r3, r3, #1
  46 0014 FB73     		strb	r3, [r7, #15]
  42:.\Generated_Source\PSoC5/Receive.c ****     Receive_DR = staticBits | ((uint8)(value << Receive_SHIFT) & Receive_MASK);
  47              		.loc 1 42 0
  48 0016 0749     		ldr	r1, .L2
  49 0018 FB79     		ldrb	r3, [r7, #7]
  50 001a 03F00103 		and	r3, r3, #1
  51 001e DAB2     		uxtb	r2, r3
  52 0020 FB7B     		ldrb	r3, [r7, #15]
  53 0022 1343     		orrs	r3, r3, r2
  54 0024 DBB2     		uxtb	r3, r3
  55 0026 0B70     		strb	r3, [r1]
  43:.\Generated_Source\PSoC5/Receive.c **** }
  56              		.loc 1 43 0
  57 0028 1437     		adds	r7, r7, #20
  58              		.cfi_def_cfa_offset 4
  59 002a BD46     		mov	sp, r7
  60              		.cfi_def_cfa_register 13
  61              		@ sp needed
  62 002c 5DF8047B 		ldr	r7, [sp], #4
  63              		.cfi_restore 7
  64              		.cfi_def_cfa_offset 0
  65 0030 7047     		bx	lr
  66              	.L3:
  67 0032 00BF     		.align	2
  68              	.L2:
  69 0034 30510040 		.word	1073762608
  70              		.cfi_endproc
  71              	.LFE0:
ARM GAS  C:\Users\mrowiecn\AppData\Local\Temp\ccZwfoFH.s 			page 3


  72              		.size	Receive_Write, .-Receive_Write
  73              		.section	.text.Receive_SetDriveMode,"ax",%progbits
  74              		.align	2
  75              		.global	Receive_SetDriveMode
  76              		.thumb
  77              		.thumb_func
  78              		.type	Receive_SetDriveMode, %function
  79              	Receive_SetDriveMode:
  80              	.LFB1:
  44:.\Generated_Source\PSoC5/Receive.c **** 
  45:.\Generated_Source\PSoC5/Receive.c **** 
  46:.\Generated_Source\PSoC5/Receive.c **** /*******************************************************************************
  47:.\Generated_Source\PSoC5/Receive.c **** * Function Name: Receive_SetDriveMode
  48:.\Generated_Source\PSoC5/Receive.c **** ********************************************************************************
  49:.\Generated_Source\PSoC5/Receive.c **** *
  50:.\Generated_Source\PSoC5/Receive.c **** * Summary:
  51:.\Generated_Source\PSoC5/Receive.c **** *  Change the drive mode on the pins of the port.
  52:.\Generated_Source\PSoC5/Receive.c **** * 
  53:.\Generated_Source\PSoC5/Receive.c **** * Parameters:  
  54:.\Generated_Source\PSoC5/Receive.c **** *  mode:  Change the pins to one of the following drive modes.
  55:.\Generated_Source\PSoC5/Receive.c **** *
  56:.\Generated_Source\PSoC5/Receive.c **** *  Receive_DM_STRONG     Strong Drive 
  57:.\Generated_Source\PSoC5/Receive.c **** *  Receive_DM_OD_HI      Open Drain, Drives High 
  58:.\Generated_Source\PSoC5/Receive.c **** *  Receive_DM_OD_LO      Open Drain, Drives Low 
  59:.\Generated_Source\PSoC5/Receive.c **** *  Receive_DM_RES_UP     Resistive Pull Up 
  60:.\Generated_Source\PSoC5/Receive.c **** *  Receive_DM_RES_DWN    Resistive Pull Down 
  61:.\Generated_Source\PSoC5/Receive.c **** *  Receive_DM_RES_UPDWN  Resistive Pull Up/Down 
  62:.\Generated_Source\PSoC5/Receive.c **** *  Receive_DM_DIG_HIZ    High Impedance Digital 
  63:.\Generated_Source\PSoC5/Receive.c **** *  Receive_DM_ALG_HIZ    High Impedance Analog 
  64:.\Generated_Source\PSoC5/Receive.c **** *
  65:.\Generated_Source\PSoC5/Receive.c **** * Return: 
  66:.\Generated_Source\PSoC5/Receive.c **** *  None
  67:.\Generated_Source\PSoC5/Receive.c **** *
  68:.\Generated_Source\PSoC5/Receive.c **** *******************************************************************************/
  69:.\Generated_Source\PSoC5/Receive.c **** void Receive_SetDriveMode(uint8 mode) 
  70:.\Generated_Source\PSoC5/Receive.c **** {
  81              		.loc 1 70 0
  82              		.cfi_startproc
  83              		@ args = 0, pretend = 0, frame = 8
  84              		@ frame_needed = 1, uses_anonymous_args = 0
  85              		@ link register save eliminated.
  86 0000 80B4     		push	{r7}
  87              		.cfi_def_cfa_offset 4
  88              		.cfi_offset 7, -4
  89 0002 83B0     		sub	sp, sp, #12
  90              		.cfi_def_cfa_offset 16
  91 0004 00AF     		add	r7, sp, #0
  92              		.cfi_def_cfa_register 7
  93 0006 0346     		mov	r3, r0
  94 0008 FB71     		strb	r3, [r7, #7]
  71:.\Generated_Source\PSoC5/Receive.c **** 	CyPins_SetPinDriveMode(Receive_0, mode);
  95              		.loc 1 71 0
  96 000a 0A4B     		ldr	r3, .L5
  97 000c 094A     		ldr	r2, .L5
  98 000e 1278     		ldrb	r2, [r2]
  99 0010 D2B2     		uxtb	r2, r2
 100 0012 D2B2     		uxtb	r2, r2
ARM GAS  C:\Users\mrowiecn\AppData\Local\Temp\ccZwfoFH.s 			page 4


 101 0014 22F00E02 		bic	r2, r2, #14
 102 0018 D1B2     		uxtb	r1, r2
 103 001a FA79     		ldrb	r2, [r7, #7]	@ zero_extendqisi2
 104 001c 02F00E02 		and	r2, r2, #14
 105 0020 D2B2     		uxtb	r2, r2
 106 0022 0A43     		orrs	r2, r2, r1
 107 0024 D2B2     		uxtb	r2, r2
 108 0026 D2B2     		uxtb	r2, r2
 109 0028 1A70     		strb	r2, [r3]
  72:.\Generated_Source\PSoC5/Receive.c **** }
 110              		.loc 1 72 0
 111 002a 0C37     		adds	r7, r7, #12
 112              		.cfi_def_cfa_offset 4
 113 002c BD46     		mov	sp, r7
 114              		.cfi_def_cfa_register 13
 115              		@ sp needed
 116 002e 5DF8047B 		ldr	r7, [sp], #4
 117              		.cfi_restore 7
 118              		.cfi_def_cfa_offset 0
 119 0032 7047     		bx	lr
 120              	.L6:
 121              		.align	2
 122              	.L5:
 123 0034 18500040 		.word	1073762328
 124              		.cfi_endproc
 125              	.LFE1:
 126              		.size	Receive_SetDriveMode, .-Receive_SetDriveMode
 127              		.section	.text.Receive_Read,"ax",%progbits
 128              		.align	2
 129              		.global	Receive_Read
 130              		.thumb
 131              		.thumb_func
 132              		.type	Receive_Read, %function
 133              	Receive_Read:
 134              	.LFB2:
  73:.\Generated_Source\PSoC5/Receive.c **** 
  74:.\Generated_Source\PSoC5/Receive.c **** 
  75:.\Generated_Source\PSoC5/Receive.c **** /*******************************************************************************
  76:.\Generated_Source\PSoC5/Receive.c **** * Function Name: Receive_Read
  77:.\Generated_Source\PSoC5/Receive.c **** ********************************************************************************
  78:.\Generated_Source\PSoC5/Receive.c **** *
  79:.\Generated_Source\PSoC5/Receive.c **** * Summary:
  80:.\Generated_Source\PSoC5/Receive.c **** *  Read the current value on the pins of the Digital Port in right justified 
  81:.\Generated_Source\PSoC5/Receive.c **** *  form.
  82:.\Generated_Source\PSoC5/Receive.c **** *
  83:.\Generated_Source\PSoC5/Receive.c **** * Parameters:  
  84:.\Generated_Source\PSoC5/Receive.c **** *  None
  85:.\Generated_Source\PSoC5/Receive.c **** *
  86:.\Generated_Source\PSoC5/Receive.c **** * Return: 
  87:.\Generated_Source\PSoC5/Receive.c **** *  Returns the current value of the Digital Port as a right justified number
  88:.\Generated_Source\PSoC5/Receive.c **** *  
  89:.\Generated_Source\PSoC5/Receive.c **** * Note:
  90:.\Generated_Source\PSoC5/Receive.c **** *  Macro Receive_ReadPS calls this function. 
  91:.\Generated_Source\PSoC5/Receive.c **** *  
  92:.\Generated_Source\PSoC5/Receive.c **** *******************************************************************************/
  93:.\Generated_Source\PSoC5/Receive.c **** uint8 Receive_Read(void) 
  94:.\Generated_Source\PSoC5/Receive.c **** {
ARM GAS  C:\Users\mrowiecn\AppData\Local\Temp\ccZwfoFH.s 			page 5


 135              		.loc 1 94 0
 136              		.cfi_startproc
 137              		@ args = 0, pretend = 0, frame = 0
 138              		@ frame_needed = 1, uses_anonymous_args = 0
 139              		@ link register save eliminated.
 140 0000 80B4     		push	{r7}
 141              		.cfi_def_cfa_offset 4
 142              		.cfi_offset 7, -4
 143 0002 00AF     		add	r7, sp, #0
 144              		.cfi_def_cfa_register 7
  95:.\Generated_Source\PSoC5/Receive.c ****     return (Receive_PS & Receive_MASK) >> Receive_SHIFT;
 145              		.loc 1 95 0
 146 0004 054B     		ldr	r3, .L9
 147 0006 1B78     		ldrb	r3, [r3]
 148 0008 DBB2     		uxtb	r3, r3
 149 000a 03F00103 		and	r3, r3, #1
 150 000e DBB2     		uxtb	r3, r3
  96:.\Generated_Source\PSoC5/Receive.c **** }
 151              		.loc 1 96 0
 152 0010 1846     		mov	r0, r3
 153 0012 BD46     		mov	sp, r7
 154              		.cfi_def_cfa_register 13
 155              		@ sp needed
 156 0014 5DF8047B 		ldr	r7, [sp], #4
 157              		.cfi_restore 7
 158              		.cfi_def_cfa_offset 0
 159 0018 7047     		bx	lr
 160              	.L10:
 161 001a 00BF     		.align	2
 162              	.L9:
 163 001c 31510040 		.word	1073762609
 164              		.cfi_endproc
 165              	.LFE2:
 166              		.size	Receive_Read, .-Receive_Read
 167              		.section	.text.Receive_ReadDataReg,"ax",%progbits
 168              		.align	2
 169              		.global	Receive_ReadDataReg
 170              		.thumb
 171              		.thumb_func
 172              		.type	Receive_ReadDataReg, %function
 173              	Receive_ReadDataReg:
 174              	.LFB3:
  97:.\Generated_Source\PSoC5/Receive.c **** 
  98:.\Generated_Source\PSoC5/Receive.c **** 
  99:.\Generated_Source\PSoC5/Receive.c **** /*******************************************************************************
 100:.\Generated_Source\PSoC5/Receive.c **** * Function Name: Receive_ReadDataReg
 101:.\Generated_Source\PSoC5/Receive.c **** ********************************************************************************
 102:.\Generated_Source\PSoC5/Receive.c **** *
 103:.\Generated_Source\PSoC5/Receive.c **** * Summary:
 104:.\Generated_Source\PSoC5/Receive.c **** *  Read the current value assigned to a Digital Port's data output register
 105:.\Generated_Source\PSoC5/Receive.c **** *
 106:.\Generated_Source\PSoC5/Receive.c **** * Parameters:  
 107:.\Generated_Source\PSoC5/Receive.c **** *  None 
 108:.\Generated_Source\PSoC5/Receive.c **** *
 109:.\Generated_Source\PSoC5/Receive.c **** * Return: 
 110:.\Generated_Source\PSoC5/Receive.c **** *  Returns the current value assigned to the Digital Port's data output register
 111:.\Generated_Source\PSoC5/Receive.c **** *  
ARM GAS  C:\Users\mrowiecn\AppData\Local\Temp\ccZwfoFH.s 			page 6


 112:.\Generated_Source\PSoC5/Receive.c **** *******************************************************************************/
 113:.\Generated_Source\PSoC5/Receive.c **** uint8 Receive_ReadDataReg(void) 
 114:.\Generated_Source\PSoC5/Receive.c **** {
 175              		.loc 1 114 0
 176              		.cfi_startproc
 177              		@ args = 0, pretend = 0, frame = 0
 178              		@ frame_needed = 1, uses_anonymous_args = 0
 179              		@ link register save eliminated.
 180 0000 80B4     		push	{r7}
 181              		.cfi_def_cfa_offset 4
 182              		.cfi_offset 7, -4
 183 0002 00AF     		add	r7, sp, #0
 184              		.cfi_def_cfa_register 7
 115:.\Generated_Source\PSoC5/Receive.c ****     return (Receive_DR & Receive_MASK) >> Receive_SHIFT;
 185              		.loc 1 115 0
 186 0004 054B     		ldr	r3, .L13
 187 0006 1B78     		ldrb	r3, [r3]
 188 0008 DBB2     		uxtb	r3, r3
 189 000a 03F00103 		and	r3, r3, #1
 190 000e DBB2     		uxtb	r3, r3
 116:.\Generated_Source\PSoC5/Receive.c **** }
 191              		.loc 1 116 0
 192 0010 1846     		mov	r0, r3
 193 0012 BD46     		mov	sp, r7
 194              		.cfi_def_cfa_register 13
 195              		@ sp needed
 196 0014 5DF8047B 		ldr	r7, [sp], #4
 197              		.cfi_restore 7
 198              		.cfi_def_cfa_offset 0
 199 0018 7047     		bx	lr
 200              	.L14:
 201 001a 00BF     		.align	2
 202              	.L13:
 203 001c 30510040 		.word	1073762608
 204              		.cfi_endproc
 205              	.LFE3:
 206              		.size	Receive_ReadDataReg, .-Receive_ReadDataReg
 207              		.section	.text.Receive_ClearInterrupt,"ax",%progbits
 208              		.align	2
 209              		.global	Receive_ClearInterrupt
 210              		.thumb
 211              		.thumb_func
 212              		.type	Receive_ClearInterrupt, %function
 213              	Receive_ClearInterrupt:
 214              	.LFB4:
 117:.\Generated_Source\PSoC5/Receive.c **** 
 118:.\Generated_Source\PSoC5/Receive.c **** 
 119:.\Generated_Source\PSoC5/Receive.c **** /* If Interrupts Are Enabled for this Pins component */ 
 120:.\Generated_Source\PSoC5/Receive.c **** #if defined(Receive_INTSTAT) 
 121:.\Generated_Source\PSoC5/Receive.c **** 
 122:.\Generated_Source\PSoC5/Receive.c ****     /*******************************************************************************
 123:.\Generated_Source\PSoC5/Receive.c ****     * Function Name: Receive_ClearInterrupt
 124:.\Generated_Source\PSoC5/Receive.c ****     ********************************************************************************
 125:.\Generated_Source\PSoC5/Receive.c ****     * Summary:
 126:.\Generated_Source\PSoC5/Receive.c ****     *  Clears any active interrupts attached to port and returns the value of the 
 127:.\Generated_Source\PSoC5/Receive.c ****     *  interrupt status register.
 128:.\Generated_Source\PSoC5/Receive.c ****     *
ARM GAS  C:\Users\mrowiecn\AppData\Local\Temp\ccZwfoFH.s 			page 7


 129:.\Generated_Source\PSoC5/Receive.c ****     * Parameters:  
 130:.\Generated_Source\PSoC5/Receive.c ****     *  None 
 131:.\Generated_Source\PSoC5/Receive.c ****     *
 132:.\Generated_Source\PSoC5/Receive.c ****     * Return: 
 133:.\Generated_Source\PSoC5/Receive.c ****     *  Returns the value of the interrupt status register
 134:.\Generated_Source\PSoC5/Receive.c ****     *  
 135:.\Generated_Source\PSoC5/Receive.c ****     *******************************************************************************/
 136:.\Generated_Source\PSoC5/Receive.c ****     uint8 Receive_ClearInterrupt(void) 
 137:.\Generated_Source\PSoC5/Receive.c ****     {
 215              		.loc 1 137 0
 216              		.cfi_startproc
 217              		@ args = 0, pretend = 0, frame = 0
 218              		@ frame_needed = 1, uses_anonymous_args = 0
 219              		@ link register save eliminated.
 220 0000 80B4     		push	{r7}
 221              		.cfi_def_cfa_offset 4
 222              		.cfi_offset 7, -4
 223 0002 00AF     		add	r7, sp, #0
 224              		.cfi_def_cfa_register 7
 138:.\Generated_Source\PSoC5/Receive.c ****         return (Receive_INTSTAT & Receive_MASK) >> Receive_SHIFT;
 225              		.loc 1 138 0
 226 0004 054B     		ldr	r3, .L17
 227 0006 1B78     		ldrb	r3, [r3]
 228 0008 DBB2     		uxtb	r3, r3
 229 000a 03F00103 		and	r3, r3, #1
 230 000e DBB2     		uxtb	r3, r3
 139:.\Generated_Source\PSoC5/Receive.c ****     }
 231              		.loc 1 139 0
 232 0010 1846     		mov	r0, r3
 233 0012 BD46     		mov	sp, r7
 234              		.cfi_def_cfa_register 13
 235              		@ sp needed
 236 0014 5DF8047B 		ldr	r7, [sp], #4
 237              		.cfi_restore 7
 238              		.cfi_def_cfa_offset 0
 239 0018 7047     		bx	lr
 240              	.L18:
 241 001a 00BF     		.align	2
 242              	.L17:
 243 001c 83450040 		.word	1073759619
 244              		.cfi_endproc
 245              	.LFE4:
 246              		.size	Receive_ClearInterrupt, .-Receive_ClearInterrupt
 247              		.text
 248              	.Letext0:
 249              		.file 2 ".\\Generated_Source\\PSoC5\\cytypes.h"