ARM GAS  C:\Users\mrowiecn\AppData\Local\Temp\ccPfQm34.s 			page 1


   1              		.syntax unified
   2              		.cpu cortex-m3
   3              		.fpu softvfp
   4              		.eabi_attribute 20, 1
   5              		.eabi_attribute 21, 1
   6              		.eabi_attribute 23, 3
   7              		.eabi_attribute 24, 1
   8              		.eabi_attribute 25, 1
   9              		.eabi_attribute 26, 1
  10              		.eabi_attribute 30, 6
  11              		.eabi_attribute 34, 1
  12              		.eabi_attribute 18, 4
  13              		.thumb
  14              		.file	"USBUART_1_cls.c"
  15              		.text
  16              	.Ltext0:
  17              		.cfi_sections	.debug_frame
  18              		.section	.text.USBUART_1_DispatchClassRqst,"ax",%progbits
  19              		.align	2
  20              		.global	USBUART_1_DispatchClassRqst
  21              		.thumb
  22              		.thumb_func
  23              		.type	USBUART_1_DispatchClassRqst, %function
  24              	USBUART_1_DispatchClassRqst:
  25              	.LFB0:
  26              		.file 1 ".\\Generated_Source\\PSoC5\\USBUART_1_cls.c"
   1:.\Generated_Source\PSoC5/USBUART_1_cls.c **** /*******************************************************************************
   2:.\Generated_Source\PSoC5/USBUART_1_cls.c **** * File Name: USBUART_1_cls.c
   3:.\Generated_Source\PSoC5/USBUART_1_cls.c **** * Version 2.80
   4:.\Generated_Source\PSoC5/USBUART_1_cls.c **** *
   5:.\Generated_Source\PSoC5/USBUART_1_cls.c **** * Description:
   6:.\Generated_Source\PSoC5/USBUART_1_cls.c **** *  USB Class request handler.
   7:.\Generated_Source\PSoC5/USBUART_1_cls.c **** *
   8:.\Generated_Source\PSoC5/USBUART_1_cls.c **** * Note:
   9:.\Generated_Source\PSoC5/USBUART_1_cls.c **** *
  10:.\Generated_Source\PSoC5/USBUART_1_cls.c **** ********************************************************************************
  11:.\Generated_Source\PSoC5/USBUART_1_cls.c **** * Copyright 2008-2014, Cypress Semiconductor Corporation.  All rights reserved.
  12:.\Generated_Source\PSoC5/USBUART_1_cls.c **** * You may use this file only in accordance with the license, terms, conditions,
  13:.\Generated_Source\PSoC5/USBUART_1_cls.c **** * disclaimers, and limitations in the end user license agreement accompanying
  14:.\Generated_Source\PSoC5/USBUART_1_cls.c **** * the software package with which this file was provided.
  15:.\Generated_Source\PSoC5/USBUART_1_cls.c **** *******************************************************************************/
  16:.\Generated_Source\PSoC5/USBUART_1_cls.c **** 
  17:.\Generated_Source\PSoC5/USBUART_1_cls.c **** #include "USBUART_1.h"
  18:.\Generated_Source\PSoC5/USBUART_1_cls.c **** 
  19:.\Generated_Source\PSoC5/USBUART_1_cls.c **** #if(USBUART_1_EXTERN_CLS == USBUART_1_FALSE)
  20:.\Generated_Source\PSoC5/USBUART_1_cls.c **** 
  21:.\Generated_Source\PSoC5/USBUART_1_cls.c **** #include "USBUART_1_pvt.h"
  22:.\Generated_Source\PSoC5/USBUART_1_cls.c **** #include "cyapicallbacks.h"
  23:.\Generated_Source\PSoC5/USBUART_1_cls.c **** 
  24:.\Generated_Source\PSoC5/USBUART_1_cls.c **** 
  25:.\Generated_Source\PSoC5/USBUART_1_cls.c **** /***************************************
  26:.\Generated_Source\PSoC5/USBUART_1_cls.c **** * User Implemented Class Driver Declarations.
  27:.\Generated_Source\PSoC5/USBUART_1_cls.c **** ***************************************/
  28:.\Generated_Source\PSoC5/USBUART_1_cls.c **** /* `#START USER_DEFINED_CLASS_DECLARATIONS` Place your declaration here */
  29:.\Generated_Source\PSoC5/USBUART_1_cls.c **** 
  30:.\Generated_Source\PSoC5/USBUART_1_cls.c **** /* `#END` */
  31:.\Generated_Source\PSoC5/USBUART_1_cls.c **** 
ARM GAS  C:\Users\mrowiecn\AppData\Local\Temp\ccPfQm34.s 			page 2


  32:.\Generated_Source\PSoC5/USBUART_1_cls.c **** 
  33:.\Generated_Source\PSoC5/USBUART_1_cls.c **** /*******************************************************************************
  34:.\Generated_Source\PSoC5/USBUART_1_cls.c **** * Function Name: USBUART_1_DispatchClassRqst
  35:.\Generated_Source\PSoC5/USBUART_1_cls.c **** ********************************************************************************
  36:.\Generated_Source\PSoC5/USBUART_1_cls.c **** * Summary:
  37:.\Generated_Source\PSoC5/USBUART_1_cls.c **** *  This routine dispatches class specific requests depend on interface class.
  38:.\Generated_Source\PSoC5/USBUART_1_cls.c **** *
  39:.\Generated_Source\PSoC5/USBUART_1_cls.c **** * Parameters:
  40:.\Generated_Source\PSoC5/USBUART_1_cls.c **** *  None.
  41:.\Generated_Source\PSoC5/USBUART_1_cls.c **** *
  42:.\Generated_Source\PSoC5/USBUART_1_cls.c **** * Return:
  43:.\Generated_Source\PSoC5/USBUART_1_cls.c **** *  requestHandled.
  44:.\Generated_Source\PSoC5/USBUART_1_cls.c **** *
  45:.\Generated_Source\PSoC5/USBUART_1_cls.c **** * Reentrant:
  46:.\Generated_Source\PSoC5/USBUART_1_cls.c **** *  No.
  47:.\Generated_Source\PSoC5/USBUART_1_cls.c **** *
  48:.\Generated_Source\PSoC5/USBUART_1_cls.c **** *******************************************************************************/
  49:.\Generated_Source\PSoC5/USBUART_1_cls.c **** uint8 USBUART_1_DispatchClassRqst(void) 
  50:.\Generated_Source\PSoC5/USBUART_1_cls.c **** {
  27              		.loc 1 50 0
  28              		.cfi_startproc
  29              		@ args = 0, pretend = 0, frame = 8
  30              		@ frame_needed = 1, uses_anonymous_args = 0
  31 0000 80B5     		push	{r7, lr}
  32              		.cfi_def_cfa_offset 8
  33              		.cfi_offset 7, -8
  34              		.cfi_offset 14, -4
  35 0002 82B0     		sub	sp, sp, #8
  36              		.cfi_def_cfa_offset 16
  37 0004 00AF     		add	r7, sp, #0
  38              		.cfi_def_cfa_register 7
  51:.\Generated_Source\PSoC5/USBUART_1_cls.c ****     uint8 requestHandled = USBUART_1_FALSE;
  39              		.loc 1 51 0
  40 0006 0023     		movs	r3, #0
  41 0008 FB71     		strb	r3, [r7, #7]
  52:.\Generated_Source\PSoC5/USBUART_1_cls.c ****     uint8 interfaceNumber = 0u;
  42              		.loc 1 52 0
  43 000a 0023     		movs	r3, #0
  44 000c BB71     		strb	r3, [r7, #6]
  53:.\Generated_Source\PSoC5/USBUART_1_cls.c **** 
  54:.\Generated_Source\PSoC5/USBUART_1_cls.c ****     switch(CY_GET_REG8(USBUART_1_bmRequestType) & USBUART_1_RQST_RCPT_MASK)
  45              		.loc 1 54 0
  46 000e 1C4B     		ldr	r3, .L13
  47 0010 1B78     		ldrb	r3, [r3]
  48 0012 DBB2     		uxtb	r3, r3
  49 0014 03F00303 		and	r3, r3, #3
  50 0018 012B     		cmp	r3, #1
  51 001a 02D0     		beq	.L3
  52 001c 022B     		cmp	r3, #2
  53 001e 04D0     		beq	.L4
  55:.\Generated_Source\PSoC5/USBUART_1_cls.c ****     {
  56:.\Generated_Source\PSoC5/USBUART_1_cls.c ****         case USBUART_1_RQST_RCPT_IFC:        /* Class-specific request directed to an interface */
  57:.\Generated_Source\PSoC5/USBUART_1_cls.c ****             interfaceNumber = CY_GET_REG8(USBUART_1_wIndexLo); /* wIndexLo contain Interface number
  58:.\Generated_Source\PSoC5/USBUART_1_cls.c ****             break;
  59:.\Generated_Source\PSoC5/USBUART_1_cls.c ****         case USBUART_1_RQST_RCPT_EP:         /* Class-specific request directed to the endpoint */
  60:.\Generated_Source\PSoC5/USBUART_1_cls.c ****             /* Find related interface to the endpoint, wIndexLo contain EP number */
  61:.\Generated_Source\PSoC5/USBUART_1_cls.c ****             interfaceNumber = USBUART_1_EP[CY_GET_REG8(USBUART_1_wIndexLo) &
ARM GAS  C:\Users\mrowiecn\AppData\Local\Temp\ccPfQm34.s 			page 3


  62:.\Generated_Source\PSoC5/USBUART_1_cls.c ****                               USBUART_1_DIR_UNUSED].interface;
  63:.\Generated_Source\PSoC5/USBUART_1_cls.c ****             break;
  64:.\Generated_Source\PSoC5/USBUART_1_cls.c ****         default:    /* RequestHandled is initialized as FALSE by default */
  65:.\Generated_Source\PSoC5/USBUART_1_cls.c ****             break;
  54              		.loc 1 65 0
  55 0020 12E0     		b	.L5
  56              	.L3:
  57:.\Generated_Source\PSoC5/USBUART_1_cls.c ****             break;
  57              		.loc 1 57 0
  58 0022 184B     		ldr	r3, .L13+4
  59 0024 1B78     		ldrb	r3, [r3]
  60 0026 BB71     		strb	r3, [r7, #6]
  58:.\Generated_Source\PSoC5/USBUART_1_cls.c ****         case USBUART_1_RQST_RCPT_EP:         /* Class-specific request directed to the endpoint */
  61              		.loc 1 58 0
  62 0028 0EE0     		b	.L5
  63              	.L4:
  61:.\Generated_Source\PSoC5/USBUART_1_cls.c ****                               USBUART_1_DIR_UNUSED].interface;
  64              		.loc 1 61 0
  65 002a 164B     		ldr	r3, .L13+4
  66 002c 1B78     		ldrb	r3, [r3]
  67 002e DBB2     		uxtb	r3, r3
  68 0030 03F07F02 		and	r2, r3, #127
  69 0034 1449     		ldr	r1, .L13+8
  70 0036 1346     		mov	r3, r2
  71 0038 5B00     		lsls	r3, r3, #1
  72 003a 1344     		add	r3, r3, r2
  73 003c 9B00     		lsls	r3, r3, #2
  74 003e 0B44     		add	r3, r3, r1
  75 0040 0833     		adds	r3, r3, #8
  76 0042 9B78     		ldrb	r3, [r3, #2]
  77 0044 BB71     		strb	r3, [r7, #6]
  63:.\Generated_Source\PSoC5/USBUART_1_cls.c ****         default:    /* RequestHandled is initialized as FALSE by default */
  78              		.loc 1 63 0
  79 0046 00BF     		nop
  80              	.L5:
  66:.\Generated_Source\PSoC5/USBUART_1_cls.c ****     }
  67:.\Generated_Source\PSoC5/USBUART_1_cls.c ****     /* Handle Class request depend on interface type */
  68:.\Generated_Source\PSoC5/USBUART_1_cls.c ****     switch(USBUART_1_interfaceClass[interfaceNumber])
  81              		.loc 1 68 0
  82 0048 104B     		ldr	r3, .L13+12
  83 004a 1A68     		ldr	r2, [r3]
  84 004c BB79     		ldrb	r3, [r7, #6]	@ zero_extendqisi2
  85 004e 1344     		add	r3, r3, r2
  86 0050 1B78     		ldrb	r3, [r3]	@ zero_extendqisi2
  87 0052 022B     		cmp	r3, #2
  88 0054 09D0     		beq	.L7
  89 0056 032B     		cmp	r3, #3
  90 0058 02D0     		beq	.L8
  91 005a 012B     		cmp	r3, #1
  92 005c 0AD0     		beq	.L12
  69:.\Generated_Source\PSoC5/USBUART_1_cls.c ****     {
  70:.\Generated_Source\PSoC5/USBUART_1_cls.c ****         case USBUART_1_CLASS_HID:
  71:.\Generated_Source\PSoC5/USBUART_1_cls.c ****             #if defined(USBUART_1_ENABLE_HID_CLASS)
  72:.\Generated_Source\PSoC5/USBUART_1_cls.c ****                 requestHandled = USBUART_1_DispatchHIDClassRqst();
  73:.\Generated_Source\PSoC5/USBUART_1_cls.c ****             #endif /* USBUART_1_ENABLE_HID_CLASS */
  74:.\Generated_Source\PSoC5/USBUART_1_cls.c ****             break;
  75:.\Generated_Source\PSoC5/USBUART_1_cls.c ****         case USBUART_1_CLASS_AUDIO:
ARM GAS  C:\Users\mrowiecn\AppData\Local\Temp\ccPfQm34.s 			page 4


  76:.\Generated_Source\PSoC5/USBUART_1_cls.c ****             #if defined(USBUART_1_ENABLE_AUDIO_CLASS)
  77:.\Generated_Source\PSoC5/USBUART_1_cls.c ****                 requestHandled = USBUART_1_DispatchAUDIOClassRqst();
  78:.\Generated_Source\PSoC5/USBUART_1_cls.c ****             #endif /* USBUART_1_CLASS_AUDIO */
  79:.\Generated_Source\PSoC5/USBUART_1_cls.c ****             break;
  80:.\Generated_Source\PSoC5/USBUART_1_cls.c ****         case USBUART_1_CLASS_CDC:
  81:.\Generated_Source\PSoC5/USBUART_1_cls.c ****             #if defined(USBUART_1_ENABLE_CDC_CLASS)
  82:.\Generated_Source\PSoC5/USBUART_1_cls.c ****                 requestHandled = USBUART_1_DispatchCDCClassRqst();
  83:.\Generated_Source\PSoC5/USBUART_1_cls.c ****             #endif /* USBUART_1_ENABLE_CDC_CLASS */
  84:.\Generated_Source\PSoC5/USBUART_1_cls.c ****             break;
  85:.\Generated_Source\PSoC5/USBUART_1_cls.c ****         default:    /* requestHandled is initialized as FALSE by default */
  86:.\Generated_Source\PSoC5/USBUART_1_cls.c ****             break;
  93              		.loc 1 86 0
  94 005e 0AE0     		b	.L10
  95              	.L8:
  72:.\Generated_Source\PSoC5/USBUART_1_cls.c ****             #endif /* USBUART_1_ENABLE_HID_CLASS */
  96              		.loc 1 72 0
  97 0060 FFF7FEFF 		bl	USBUART_1_DispatchHIDClassRqst
  98 0064 0346     		mov	r3, r0
  99 0066 FB71     		strb	r3, [r7, #7]
  74:.\Generated_Source\PSoC5/USBUART_1_cls.c ****         case USBUART_1_CLASS_AUDIO:
 100              		.loc 1 74 0
 101 0068 05E0     		b	.L10
 102              	.L7:
  82:.\Generated_Source\PSoC5/USBUART_1_cls.c ****             #endif /* USBUART_1_ENABLE_CDC_CLASS */
 103              		.loc 1 82 0
 104 006a FFF7FEFF 		bl	USBUART_1_DispatchCDCClassRqst
 105 006e 0346     		mov	r3, r0
 106 0070 FB71     		strb	r3, [r7, #7]
  84:.\Generated_Source\PSoC5/USBUART_1_cls.c ****         default:    /* requestHandled is initialized as FALSE by default */
 107              		.loc 1 84 0
 108 0072 00E0     		b	.L10
 109              	.L12:
  79:.\Generated_Source\PSoC5/USBUART_1_cls.c ****         case USBUART_1_CLASS_CDC:
 110              		.loc 1 79 0
 111 0074 00BF     		nop
 112              	.L10:
  87:.\Generated_Source\PSoC5/USBUART_1_cls.c ****     }
  88:.\Generated_Source\PSoC5/USBUART_1_cls.c **** 
  89:.\Generated_Source\PSoC5/USBUART_1_cls.c ****     /* `#START USER_DEFINED_CLASS_CODE` Place your Class request here */
  90:.\Generated_Source\PSoC5/USBUART_1_cls.c **** 
  91:.\Generated_Source\PSoC5/USBUART_1_cls.c ****     /* `#END` */
  92:.\Generated_Source\PSoC5/USBUART_1_cls.c **** 
  93:.\Generated_Source\PSoC5/USBUART_1_cls.c ****     #ifdef USBUART_1_DISPATCH_CLASS_RQST_CALLBACK
  94:.\Generated_Source\PSoC5/USBUART_1_cls.c ****         USBUART_1_DispatchClassRqst_Callback();
  95:.\Generated_Source\PSoC5/USBUART_1_cls.c ****     #endif /* USBUART_1_DISPATCH_CLASS_RQST_CALLBACK */
  96:.\Generated_Source\PSoC5/USBUART_1_cls.c **** 
  97:.\Generated_Source\PSoC5/USBUART_1_cls.c ****     return(requestHandled);
 113              		.loc 1 97 0
 114 0076 FB79     		ldrb	r3, [r7, #7]	@ zero_extendqisi2
  98:.\Generated_Source\PSoC5/USBUART_1_cls.c **** }
 115              		.loc 1 98 0
 116 0078 1846     		mov	r0, r3
 117 007a 0837     		adds	r7, r7, #8
 118              		.cfi_def_cfa_offset 8
 119 007c BD46     		mov	sp, r7
 120              		.cfi_def_cfa_register 13
 121              		@ sp needed
ARM GAS  C:\Users\mrowiecn\AppData\Local\Temp\ccPfQm34.s 			page 5


 122 007e 80BD     		pop	{r7, pc}
 123              	.L14:
 124              		.align	2
 125              	.L13:
 126 0080 00600040 		.word	1073766400
 127 0084 04600040 		.word	1073766404
 128 0088 00000000 		.word	USBUART_1_EP
 129 008c 00000000 		.word	USBUART_1_interfaceClass
 130              		.cfi_endproc
 131              	.LFE0:
 132              		.size	USBUART_1_DispatchClassRqst, .-USBUART_1_DispatchClassRqst
 133              		.text
 134              	.Letext0:
 135              		.file 2 ".\\Generated_Source\\PSoC5\\cytypes.h"
 136              		.file 3 ".\\Generated_Source\\PSoC5\\USBUART_1.h"
 137              		.file 4 ".\\Generated_Source\\PSoC5\\USBUART_1_pvt.h"